(dp0
S'METTS MARK'
p1
(dp2
S'to_messages'
p3
I807
sS'deferral_payments'
p4
S'NaN'
p5
sS'expenses'
p6
cnumpy.core.multiarray
scalar
p7
(cnumpy
dtype
p8
(S'f8'
p9
I0
I1
tp10
Rp11
(I3
S'<'
p12
NNNI-1
I-1
I0
tp13
bS'"\x1aH\x82\xf3\xfb\xeb?'
p14
tp15
Rp16
sS'poi'
p17
I00
sS'deferred_income'
p18
g5
sS'messages_sent_poi_ratio'
p19
F0.034482758620689655
sS'email_address'
p20
S'mark.metts@enron.com'
p21
sS'long_term_incentive'
p22
g5
sS'restricted_stock_deferred'
p23
g5
sS'shared_receipt_with_poi'
p24
g7
(g11
S'\n5\x02Z\xed\xeb\xd9\xbf'
p25
tp26
Rp27
sS'loan_advances'
p28
g5
sS'from_messages'
p29
I29
sS'other'
p30
g7
(g11
S'1\xf4e\xa7^f\xd5\xbf'
p31
tp32
Rp33
sS'director_fees'
p34
g5
sS'bonus'
p35
g7
(g11
S'c(@vy\xe1\xda\xbf'
p36
tp37
Rp38
sS'total_stock_value'
p39
I585062
sS'from_poi_to_this_person'
p40
I38
sS'from_this_person_to_poi'
p41
I1
sS'restricted_stock'
p42
I585062
sS'salary'
p43
I365788
sS'bonus_ratio'
p44
S'NaN'
p45
sS'total_payments'
p46
I1061827
sS'salary_ratio'
p47
g45
sS'messages_recevied_poi_ratio'
p48
F0.04708798017348203
sS'exercised_stock_options'
p49
g5
sS'expense_ratio'
p50
F0.34448926237513267
ssS'BAXTER JOHN C'
p51
(dp52
g3
g5
sg4
I1295738
sg6
g7
(g11
S'^o\xda\xd1F\xff\xed\xbf'
p53
tp54
Rp55
sg17
I00
sg18
I-1386055
sg19
g45
sg20
g5
sg22
I1586055
sg23
g5
sg24
g5
sg28
g5
sg29
g5
sg30
g7
(g11
S'\x03\x91Q\x9cbB\xf9?'
p56
tp57
Rp58
sg34
g5
sg35
g7
(g11
S'X~\x1f\x95\x93FT\xbf'
p59
tp60
Rp61
sg39
I10623258
sg40
g5
sg41
g5
sg42
I3942714
sg43
I267102
sg44
g45
sg46
I5634343
sg47
g45
sg48
g45
sg49
g7
(g11
S'\xf9w\xb1\xf5o\xc2\xe5?'
p62
tp63
Rp64
sg50
F0.047406059588491506
ssS'ELLIOTT STEVEN'
p65
(dp66
g3
g5
sg4
g5
sg6
g7
(g11
S'y\x0ec\xc04\xff\xe0?'
p67
tp68
Rp69
sg17
I00
sg18
I-400729
sg19
g45
sg20
S'steven.elliott@enron.com'
p70
sg22
g5
sg23
g5
sg24
g5
sg28
g5
sg29
g5
sg30
g7
(g11
S'\x8cn\xfb\x92\x13\xe2\xd4\xbf'
p71
tp72
Rp73
sg34
g5
sg35
g7
(g11
S"\x0c\xb6\x03U'\x06\xe3\xbf"
p74
tp75
Rp76
sg39
I6678735
sg40
g5
sg41
g5
sg42
I1788391
sg43
I170941
sg44
g45
sg46
I211725
sg47
g45
sg48
g45
sg49
g7
(g11
S'\\x&\xb9\xe5\x94\xd6?'
p77
tp78
Rp79
sg50
F0.8073727712835046
ssS'CORDES WILLIAM R'
p80
(dp81
g3
I764
sg4
g5
sg6
g5
sg17
I00
sg18
g5
sg19
F0.0
sg20
S'bill.cordes@enron.com'
p82
sg22
g5
sg23
g5
sg24
g7
(g11
S'6\xfb\x10\xb6~\x8d\xee\xbf'
p83
tp84
Rp85
sg28
g5
sg29
I12
sg30
g5
sg34
g5
sg35
g5
sg39
I1038185
sg40
I10
sg41
I0
sg42
I386335
sg43
g5
sg44
g45
sg46
g5
sg47
g45
sg48
F0.013089005235602094
sg49
g7
(g11
S'\xc8G\xf1.o\xfd\xda\xbf'
p86
tp87
Rp88
sg50
g45
ssS'HANNON KEVIN P'
p89
(dp90
g3
I1045
sg4
g5
sg6
g7
(g11
S'\xf6%)\xa3\x80\x1f\xdc\xbf'
p91
tp92
Rp93
sg17
I01
sg18
I-3117011
sg19
F0.65625
sg20
S'kevin.hannon@enron.com'
p94
sg22
I1617011
sg23
g5
sg24
g7
(g11
S'\n9;\x951\xea\xbe\xbf'
p95
tp96
Rp97
sg28
g5
sg29
I32
sg30
g7
(g11
S'\xd6\xbf\xb7\xdf\x11\xf5\xd4\xbf'
p98
tp99
Rp100
sg34
g5
sg35
g7
(g11
S'\xe8\xc9\x80\xbb\xa5\xa4\xca?'
p101
tp102
Rp103
sg39
I6391065
sg40
I32
sg41
I21
sg42
I853064
sg43
I243293
sg44
g45
sg46
I288682
sg47
g45
sg48
F0.03062200956937799
sg49
g7
(g11
S'QQ\xc8y\x06(\xde?'
p104
tp105
Rp106
sg50
F0.8427716310680957
ssS'MORDAUNT KRISTINA M'
p107
(dp108
g3
g5
sg4
g5
sg6
g7
(g11
S'\xff\x88\xc85\xc3\xc1\xda\xbf'
p109
tp110
Rp111
sg17
I00
sg18
g5
sg19
g45
sg20
S'kristina.mordaunt@enron.com'
p112
sg22
g5
sg23
g5
sg24
g5
sg28
g5
sg29
g5
sg30
g7
(g11
S'\x00\xb24\xa3?j\xd5\xbf'
p113
tp114
Rp115
sg34
g5
sg35
g7
(g11
S';Fgd\x18\x95\xe3\xbf'
p116
tp117
Rp118
sg39
I208510
sg40
g5
sg41
g5
sg42
I208510
sg43
I267093
sg44
g45
sg46
I628522
sg47
g45
sg48
g45
sg49
g5
sg50
F0.42495409866321304
ssS'MEYER ROCKFORD G'
p119
(dp120
g3
I232
sg4
I1848227
sg6
g5
sg17
I00
sg18
g5
sg19
F0.0
sg20
S'rockford.meyer@enron.com'
p121
sg22
g5
sg23
g5
sg24
g7
(g11
S'q\x1cK\xc3>\x89\xef\xbf'
p122
tp123
Rp124
sg28
g5
sg29
I28
sg30
g5
sg34
g5
sg35
g5
sg39
I955873
sg40
I0
sg41
I0
sg42
I462384
sg43
g5
sg44
g45
sg46
I1848227
sg47
g45
sg48
F0.0
sg49
g7
(g11
S'\xa7S\x80\xdf\x93\xd7\xdc\xbf'
p125
tp126
Rp127
sg50
g45
ssS'MCMAHON JEFFREY'
p128
(dp129
g3
I2355
sg4
g5
sg6
g7
(g11
S'X5\x04\xe7D\xed\xfc?'
p130
tp131
Rp132
sg17
I00
sg18
g5
sg19
F0.5416666666666666
sg20
S'jeffrey.mcmahon@enron.com'
p133
sg22
I694862
sg23
g5
sg24
g7
(g11
S'W\xf4\x1e\xa0r\xb9\xec?'
p134
tp135
Rp136
sg28
g5
sg29
I48
sg30
g7
(g11
S'\xe8\x0e\x15\x00\x9d$\xbf\xbf'
p137
tp138
Rp139
sg34
g5
sg35
g7
(g11
S'\xa1\xfa\xfc\x13\x98:\xef?'
p140
tp141
Rp142
sg39
I1662855
sg40
I58
sg41
I26
sg42
I558801
sg43
I370448
sg44
g45
sg46
I4099771
sg47
g45
sg48
F0.024628450106157114
sg49
g7
(g11
S'\x07\x9a\x95n\x81\xb3\xd5\xbf'
p143
tp144
Rp145
sg50
F0.09035821756873738
ssS'HORTON STANLEY C'
p146
(dp147
g3
I2350
sg4
I3131860
sg6
g5
sg17
I00
sg18
g5
sg19
F0.013979496738117428
sg20
S'stanley.horton@enron.com'
p148
sg22
g5
sg23
g5
sg24
g7
(g11
S'^nC\xcd[d\xb6\xbf'
p149
tp150
Rp151
sg28
g5
sg29
I1073
sg30
g5
sg34
g5
sg35
g5
sg39
I7256648
sg40
I44
sg41
I15
sg42
I2046079
sg43
g5
sg44
g45
sg46
I3131860
sg47
g45
sg48
F0.01872340425531915
sg49
g7
(g11
S'\xab-\xdb\x15\xacS\xda?'
p152
tp153
Rp154
sg50
g45
ssS'PIPER GREGORY F'
p155
(dp156
g3
I1238
sg4
I1130036
sg6
g7
(g11
S'>\x9b\xfc\xa4\xc9\x13\xcf\xbf'
p157
tp158
Rp159
sg17
I00
sg18
I-33333
sg19
F0.21621621621621623
sg20
S'greg.piper@enron.com'
p160
sg22
g5
sg23
I-409554
sg24
g7
(g11
S'\xa2\x07\x81u{\xbc\xd7\xbf'
p161
tp162
Rp163
sg28
g5
sg29
I222
sg30
g7
(g11
S'\xf9\x18l&\xb6q\xd5\xbf'
p164
tp165
Rp166
sg34
g5
sg35
g7
(g11
S'\xad\x95<6E\xe8\xe1\xbf'
p167
tp168
Rp169
sg39
I880290
sg40
I61
sg41
I48
sg42
I409554
sg43
I197091
sg44
g45
sg46
I1737629
sg47
g45
sg48
F0.049273021001615507
sg49
g7
(g11
S'\xfc\x1btFxQ\xd8\xbf'
p170
tp171
Rp172
sg50
F0.11342524785210191
ssS'HUMPHREY GENE E'
p173
(dp174
g3
I128
sg4
I2964506
sg6
g7
(g11
S'\x03k\xbe:\xe6)\xf1\xbf'
p175
tp176
Rp177
sg17
I00
sg18
g5
sg19
F1.0
sg20
S'gene.humphrey@enron.com'
p178
sg22
g5
sg23
g5
sg24
g7
(g11
S'\xcb{n\x11\xeb\xe2\xec\xbf'
p179
tp180
Rp181
sg28
g5
sg29
I17
sg30
g5
sg34
g5
sg35
g5
sg39
I2282768
sg40
I10
sg41
I17
sg42
g5
sg43
I130724
sg44
g45
sg46
I3100224
sg47
g45
sg48
F0.078125
sg49
g7
(g11
S'\xfbWOln\xa9\xbf\xbf'
p182
tp183
Rp184
sg50
F0.04216598542556925
ssS'UMANOFF ADAM S'
p185
(dp186
g3
I111
sg4
g5
sg6
g7
(g11
S'\xbf\x1d}^\x0b\xe4\x97\xbf'
p187
tp188
Rp189
sg17
I00
sg18
g5
sg19
F0.0
sg20
S'adam.umanoff@enron.com'
p190
sg22
g5
sg23
g5
sg24
g7
(g11
S'unl\x83`\x04\xef\xbf'
p191
tp192
Rp193
sg28
g5
sg29
I18
sg30
g5
sg34
g5
sg35
g7
(g11
S'\xfd\xf3\x13A\x0es\xd2\xbf'
p194
tp195
Rp196
sg39
g5
sg40
I12
sg41
I0
sg42
g5
sg43
I288589
sg44
g45
sg46
I1130461
sg47
g45
sg48
F0.10810810810810811
sg49
g5
sg50
F0.2552843485976075
ssS'BLACHMAN JEREMY M'
p197
(dp198
g3
I2475
sg4
g5
sg6
g7
(g11
S'\x05\x1b5\x8d|\xf1\xe4?'
p199
tp200
Rp201
sg17
I00
sg18
g5
sg19
F0.14285714285714285
sg20
S'jeremy.blachman@enron.com'
p202
sg22
I831809
sg23
g5
sg24
g7
(g11
S'[2=\x8b\xc4f\xef?'
p203
tp204
Rp205
sg28
g5
sg29
I14
sg30
g7
(g11
S'\x03@UZ\xadw\xd5\xbf'
p206
tp207
Rp208
sg34
g5
sg35
g7
(g11
S']\xc9\xf1\x84Hm\xcf\xbf'
p209
tp210
Rp211
sg39
I954354
sg40
I25
sg41
I2
sg42
I189041
sg43
I248546
sg44
g45
sg46
I2014835
sg47
g45
sg48
F0.010101010101010102
sg49
g7
(g11
S'c\x01\x93\xf4\xb7\xa9\xd9\xbf'
p212
tp213
Rp214
sg50
F0.12335799209364538
ssS'SUNDE MARTIN'
p215
(dp216
g3
I2647
sg4
g5
sg6
g5
sg17
I00
sg18
g5
sg19
F0.34210526315789475
sg20
S'marty.sunde@enron.com'
p217
sg22
I476451
sg23
g5
sg24
g7
(g11
S'\x99\x8e\xbf\xff\r\xf7\xf2?'
p218
tp219
Rp220
sg28
g5
sg29
I38
sg30
g7
(g11
S'\x06\x9eCJ\xc7\\\xd0\xbf'
p221
tp222
Rp223
sg34
g5
sg35
g7
(g11
S'\xe8\xa6#\xfb\xf0i\xd6\xbf'
p224
tp225
Rp226
sg39
I698920
sg40
I37
sg41
I13
sg42
I698920
sg43
I257486
sg44
g45
sg46
I1545059
sg47
g45
sg48
F0.013978088401964487
sg49
g5
sg50
F0.16665124115001434
ssS'GIBBS DANA R'
p227
(dp228
g3
I169
sg4
I504610
sg6
g5
sg17
I00
sg18
g5
sg19
F0.0
sg20
S'dana.gibbs@enron.com'
p229
sg22
I461912
sg23
g5
sg24
g7
(g11
S'\x13\x7f\t\x8a@\x82\xef\xbf'
p230
tp231
Rp232
sg28
g5
sg29
I12
sg30
g5
sg34
g5
sg35
g5
sg39
I2218275
sg40
I0
sg41
I0
sg42
g5
sg43
g5
sg44
g45
sg46
I966522
sg47
g45
sg48
F0.0
sg49
g7
(g11
S'K\xbe\xf8\x85\xe8V\xc1\xbf'
p233
tp234
Rp235
sg50
g45
ssS'LOWRY CHARLES P'
p236
(dp237
g3
g5
sg4
g5
sg6
g5
sg17
I00
sg18
g5
sg19
g45
sg20
g5
sg22
g5
sg23
I-153686
sg24
g5
sg28
g5
sg29
g5
sg30
g5
sg34
g5
sg35
g5
sg39
I372205
sg40
g5
sg41
g5
sg42
I153686
sg43
g5
sg44
g45
sg46
g5
sg47
g45
sg48
g45
sg49
g7
(g11
S'\x00\xaf\xa1\xbf\xb5B\xde\xbf'
p238
tp239
Rp240
sg50
g45
ssS'COLWELL WESLEY'
p241
(dp242
g3
I1758
sg4
I27610
sg6
g7
(g11
S'\x0f\xb3\x9a\xa5\x15J\xea\xbf'
p243
tp244
Rp245
sg17
I01
sg18
I-144062
sg19
F0.275
sg20
S'wes.colwell@enron.com'
p246
sg22
g5
sg23
g5
sg24
g7
(g11
S'\xa9g\xac\x0c(o\xa3\xbf'
p247
tp248
Rp249
sg28
g5
sg29
I40
sg30
g7
(g11
S'\x82Sc\xecc\xcb\xd0\xbf'
p250
tp251
Rp252
sg34
g5
sg35
g7
(g11
S'X~\x1f\x95\x93FT\xbf'
p253
tp254
Rp255
sg39
I698242
sg40
I240
sg41
I11
sg42
I698242
sg43
I288542
sg44
g45
sg46
I1490344
sg47
g45
sg48
F0.13651877133105803
sg49
g5
sg50
F0.19360765031428986
ssS'MULLER MARK S'
p256
(dp257
g3
I136
sg4
I842924
sg6
g5
sg17
I00
sg18
I-719000
sg19
F0.0
sg20
S's..muller@enron.com'
p258
sg22
I1725545
sg23
g5
sg24
g7
(g11
S'\xa1\x8e\xb6/\xe2\x05\xed\xbf'
p259
tp260
Rp261
sg28
g5
sg29
I16
sg30
g7
(g11
S'\x83\x12\x91\x13\xb8o\xd5\xbf'
p262
tp263
Rp264
sg34
g5
sg35
g7
(g11
S'\xe7\x83\xc6:</\xb2\xbf'
p265
tp266
Rp267
sg39
I1416848
sg40
I12
sg41
I0
sg42
I360528
sg43
I251654
sg44
g45
sg46
I3202070
sg47
g45
sg48
F0.08823529411764706
sg49
g7
(g11
S'hF5\xa2lB\xd6\xbf'
p268
tp269
Rp270
sg50
F0.07859103642331366
ssS'JACKSON CHARLENE R'
p271
(dp272
g3
I258
sg4
g5
sg6
g7
(g11
S'\xbf\xbf\xd1\x9cJ\xb5\xee\xbf'
p273
tp274
Rp275
sg17
I00
sg18
g5
sg19
F0.3392857142857143
sg20
S'charlene.jackson@enron.com'
p276
sg22
g5
sg23
g5
sg24
g7
(g11
S'\x87\xb6\xf1\x83\xe7\xf0\xec\xbf'
p277
tp278
Rp279
sg28
g5
sg29
I56
sg30
g7
(g11
S'\xc6O\x83\x03-^\xd5\xbf'
p280
tp281
Rp282
sg34
g5
sg35
g7
(g11
S'\xca\xf6\x91\x92\xebA\xe5\xbf'
p283
tp284
Rp285
sg39
I725735
sg40
I25
sg41
I19
sg42
I540672
sg43
I288558
sg44
g45
sg46
I551174
sg47
g45
sg48
F0.09689922480620156
sg49
g7
(g11
S's\xfbbC\x839\xe0\xbf'
p286
tp287
Rp288
sg50
F0.5235334032447104
ssS'WESTFAHL RICHARD K'
p289
(dp290
g3
g5
sg4
g5
sg6
g7
(g11
S'\xfcEZ\x8d(\xec\xa9\xbf'
p291
tp292
Rp293
sg17
I00
sg18
I-10800
sg19
g45
sg20
S'dick.westfahl@enron.com'
p294
sg22
I256191
sg23
g5
sg24
g5
sg28
g5
sg29
g5
sg30
g7
(g11
S'\xd6\xe3\xe4\x9b&\r\xa8\xbf'
p295
tp296
Rp297
sg34
g5
sg35
g5
sg39
I384930
sg40
g5
sg41
g5
sg42
I384930
sg43
I63744
sg44
g45
sg46
I762135
sg47
g45
sg48
g45
sg49
g5
sg50
F0.08363872542266133
ssS'WALTERS GARETH W'
p298
(dp299
g3
g5
sg4
I53625
sg6
g7
(g11
S'\x15\xbe{\xf1=z\xdc\xbf'
p300
tp301
Rp302
sg17
I00
sg18
g5
sg19
g45
sg20
g5
sg22
g5
sg23
g5
sg24
g5
sg28
g5
sg29
g5
sg30
g5
sg34
g5
sg35
g5
sg39
I1030329
sg40
g5
sg41
g5
sg42
g5
sg43
g5
sg44
g45
sg46
I87410
sg47
g45
sg48
g45
sg49
g7
(g11
S'h\x00p=>\x90\xd6\xbf'
p303
tp304
Rp305
sg50
g45
ssS'WALLS JR ROBERT H'
p306
(dp307
g3
I671
sg4
g5
sg6
g7
(g11
S'\xc2\x85\xb0E\xbc,\xb2\xbf'
p308
tp309
Rp310
sg17
I00
sg18
g5
sg19
F0.0
sg20
S'rob.walls@enron.com'
p311
sg22
I540751
sg23
g5
sg24
g7
(g11
S'\x82x\xd3\x98\x95C\xea\xbf'
p312
tp313
Rp314
sg28
g5
sg29
I146
sg30
g7
(g11
S'j\x85pC\xdcz\xd5\xbf'
p315
tp316
Rp317
sg34
g5
sg35
g7
(g11
S']\xc9\xf1\x84Hm\xcf\xbf'
p318
tp319
Rp320
sg39
I5898997
sg40
I17
sg41
I0
sg42
I1552453
sg43
I357091
sg44
g45
sg46
I1798780
sg47
g45
sg48
F0.02533532041728763
sg49
g7
(g11
S'\xdcN\xfda\xb98\xd0?'
p321
tp322
Rp323
sg50
F0.1985184402761872
ssS'KITCHEN LOUISE'
p324
(dp325
g3
I8305
sg4
g5
sg6
g7
(g11
S'\x7f\x18\n\xb5<\xe4\xf0\xbf'
p326
tp327
Rp328
sg17
I00
sg18
g5
sg19
F0.11226851851851852
sg20
S'louise.kitchen@enron.com'
p329
sg22
g5
sg23
g5
sg24
g7
(g11
S'\xbdp\x9d\xba\x9c\x05\x01@'
p330
tp331
Rp332
sg28
g5
sg29
I1728
sg30
g7
(g11
S"\xedV\xa3\x0e\x87'\xd1\xbf"
p333
tp334
Rp335
sg34
g5
sg35
g7
(g11
S'+\x1f\xe2\xa3\xb62\xf5?'
p336
tp337
Rp338
sg39
I547143
sg40
I251
sg41
I194
sg42
I466101
sg43
I271442
sg44
g45
sg46
I3471141
sg47
g45
sg48
F0.030222757375075255
sg49
g7
(g11
S'c(\x17R<\xd5\xe0\xbf'
p339
tp340
Rp341
sg50
F0.07819964674439903
ssS'CHAN RONNIE'
p342
(dp343
g3
g5
sg4
g5
sg6
g5
sg17
I00
sg18
I-98784
sg19
g45
sg20
g5
sg22
g5
sg23
I-32460
sg24
g5
sg28
g5
sg29
g5
sg30
g5
sg34
I98784
sg35
g5
sg39
g5
sg40
g5
sg41
g5
sg42
I32460
sg43
g5
sg44
g45
sg46
g5
sg47
g45
sg48
g45
sg49
g5
sg50
g45
ssS'BELFER ROBERT'
p344
(dp345
g3
g5
sg4
I-102500
sg6
g5
sg17
I00
sg18
g5
sg19
g45
sg20
g5
sg22
g5
sg23
I44093
sg24
g5
sg28
g5
sg29
g5
sg30
g5
sg34
I3285
sg35
g5
sg39
I-44093
sg40
g5
sg41
g5
sg42
g5
sg43
g5
sg44
g45
sg46
I102500
sg47
g45
sg48
g45
sg49
g7
(g11
S'a\xeeD\xf3\xa3I\xe1\xbf'
p346
tp347
Rp348
sg50
g45
ssS'SHANKMAN JEFFREY A'
p349
(dp350
g3
I3221
sg4
g5
sg6
g7
(g11
S'\xad\xb3^\x0ce\xc4\x05@'
p351
tp352
Rp353
sg17
I00
sg18
g5
sg19
F0.030958597538232
sg20
S'jeffrey.shankman@enron.com'
p354
sg22
I554422
sg23
g5
sg24
g7
(g11
S'\x9d\xa6\xf5|\xce=\xde?'
p355
tp356
Rp357
sg28
g5
sg29
I2681
sg30
g7
(g11
S'\x1b\xce\x83\xa3\xd7l\xd5\xbf'
p358
tp359
Rp360
sg34
g5
sg35
g7
(g11
S'/v\xa7\xa2\xfe\xd3\xe1?'
p361
tp362
Rp363
sg39
I2072035
sg40
I94
sg41
I83
sg42
I630137
sg43
I304110
sg44
g45
sg46
I3038702
sg47
g45
sg48
F0.029183483390251473
sg49
g7
(g11
S'\xb4\xe1%q\xfa\xbf\xd1\xbf'
p364
tp365
Rp366
sg50
F0.10007891527369252
ssS'WODRASKA JOHN'
p367
(dp368
g3
g5
sg4
g5
sg6
g5
sg17
I00
sg18
g5
sg19
g45
sg20
S'john.wodraska@enron.com'
p369
sg22
g5
sg23
g5
sg24
g5
sg28
g5
sg29
g5
sg30
g7
(g11
S'\x85\xb8\x86\x97z\x7f\xc9\xbf'
p370
tp371
Rp372
sg34
g5
sg35
g5
sg39
g5
sg40
g5
sg41
g5
sg42
g5
sg43
g5
sg44
g45
sg46
I189583
sg47
g45
sg48
g45
sg49
g5
sg50
g45
ssS'BERGSIEKER RICHARD P'
p373
(dp374
g3
I383
sg4
g5
sg6
g7
(g11
S'\xb6\xb3\x90r\x88\xd0\xbb?'
p375
tp376
Rp377
sg17
I00
sg18
I-485813
sg19
F0.0
sg20
S'rick.bergsieker@enron.com'
p378
sg22
I180250
sg23
g5
sg24
g7
(g11
S'\xe4g6\x92\xb5\xc5\xe9\xbf'
p379
tp380
Rp381
sg28
g5
sg29
I59
sg30
g7
(g11
S'\xa3 p,\xa9\xce\x9c\xbf'
p382
tp383
Rp384
sg34
g5
sg35
g7
(g11
S'\xca\xf6\x91\x92\xebA\xe5\xbf'
p385
tp386
Rp387
sg39
I659249
sg40
I4
sg41
I0
sg42
I659249
sg43
I187922
sg44
g45
sg46
I618850
sg47
g45
sg48
F0.010443864229765013
sg49
g5
sg50
F0.3036632463440252
ssS'URQUHART JOHN A'
p388
(dp389
g3
g5
sg4
g5
sg6
g7
(g11
S'U\xf9\xe9\xd8\xbbn\x0e@'
p390
tp391
Rp392
sg17
I00
sg18
I-36666
sg19
g45
sg20
g5
sg22
g5
sg23
g5
sg24
g5
sg28
g5
sg29
g5
sg30
g5
sg34
I36666
sg35
g5
sg39
g5
sg40
g5
sg41
g5
sg42
g5
sg43
g5
sg44
g45
sg46
I228656
sg47
g45
sg48
g45
sg49
g5
sg50
g45
ssS'BIBI PHILIPPE A'
p393
(dp394
g3
I1607
sg4
g5
sg6
g7
(g11
S'\xbfxy\xbc\xc4\xd0\xd5\xbf'
p395
tp396
Rp397
sg17
I00
sg18
g5
sg19
F0.2
sg20
S'philippe.bibi@enron.com'
p398
sg22
I369721
sg23
g5
sg24
g7
(g11
S'\xfe\x81\xfa}\x8cn\xc1?'
p399
tp400
Rp401
sg28
g5
sg29
I40
sg30
g7
(g11
S'WS\xa0\xea\xc2\x01\x9e\xbf'
p402
tp403
Rp404
sg34
g5
sg35
g7
(g11
S'\xebD\x9c\x13\xaf\x06\xc2\xbf'
p405
tp406
Rp407
sg39
I1843816
sg40
I23
sg41
I8
sg42
I378082
sg43
I213625
sg44
g45
sg46
I2047593
sg47
g45
sg48
F0.01431238332296204
sg49
g7
(g11
S'\x94\x01!\x9a\x9cx\xd1\xbf'
p408
tp409
Rp410
sg50
F0.10432981554439774
ssS'RIEKER PAULA H'
p411
(dp412
g3
I1328
sg4
I214678
sg6
g7
(g11
S'\xe4niG\xdd1\xdd\xbf'
p413
tp414
Rp415
sg17
I01
sg18
I-100000
sg19
F0.5853658536585366
sg20
S'paula.rieker@enron.com'
p416
sg22
g5
sg23
g5
sg24
g7
(g11
S'\xa5n\x05lm\xd1\xb1?'
p417
tp418
Rp419
sg28
g5
sg29
I82
sg30
g7
(g11
S'\x8c\x13\xa6\xd5\xe4c\xd5\xbf'
p420
tp421
Rp422
sg34
g5
sg35
g7
(g11
S'\xe8\xa6#\xfb\xf0i\xd6\xbf'
p423
tp424
Rp425
sg39
I1918887
sg40
I35
sg41
I48
sg42
I283649
sg43
I249201
sg44
g45
sg46
I1099100
sg47
g45
sg48
F0.02635542168674699
sg49
g7
(g11
S'\xa4\x1a\xc3\x076\xfa\xce\xbf'
p426
tp427
Rp428
sg50
F0.22673187153125285
ssS'WHALEY DAVID A'
p429
(dp430
g3
g5
sg4
g5
sg6
g5
sg17
I00
sg18
g5
sg19
g45
sg20
g5
sg22
g5
sg23
g5
sg24
g5
sg28
g5
sg29
g5
sg30
g5
sg34
g5
sg35
g5
sg39
I98718
sg40
g5
sg41
g5
sg42
g5
sg43
g5
sg44
g45
sg46
g5
sg47
g45
sg48
g45
sg49
g7
(g11
S'\xf1\xedz)\xc6\xba\xe0\xbf'
p431
tp432
Rp433
sg50
g45
ssS'BECK SALLY W'
p434
(dp435
g3
I7315
sg4
g5
sg6
g7
(g11
S'u<\x1caC\xc0\xd7\xbf'
p436
tp437
Rp438
sg17
I00
sg18
g5
sg19
F0.08887865530739121
sg20
S'sally.beck@enron.com'
p439
sg22
g5
sg23
g5
sg24
g7
(g11
S'3M;F\xcc\xf9\xf3?'
p440
tp441
Rp442
sg28
g5
sg29
I4343
sg30
g7
(g11
S'O\xd2{\x016t\xd5\xbf'
p443
tp444
Rp445
sg34
g5
sg35
g7
(g11
S'\xe8\xa6#\xfb\xf0i\xd6\xbf'
p446
tp447
Rp448
sg39
I126027
sg40
I144
sg41
I386
sg42
I126027
sg43
I231330
sg44
g45
sg46
I969068
sg47
g45
sg48
F0.01968557758031442
sg49
g5
sg50
F0.23871389830228631
ssS'HAUG DAVID L'
p449
(dp450
g3
I573
sg4
g5
sg6
g7
(g11
S'K\xa6\\W~\xbd\xf2\xbf'
p451
tp452
Rp453
sg17
I00
sg18
g5
sg19
F0.3684210526315789
sg20
S'david.haug@enron.com'
p454
sg22
g5
sg23
g5
sg24
g7
(g11
S'k\x1a6W\\E\xe3\xbf'
p455
tp456
Rp457
sg28
g5
sg29
I19
sg30
g5
sg34
g5
sg35
g5
sg39
I2217299
sg40
I4
sg41
I7
sg42
I2217299
sg43
g5
sg44
g45
sg46
I475
sg47
g45
sg48
F0.006980802792321117
sg49
g5
sg50
g45
ssS'ECHOLS JOHN B'
p458
(dp459
g3
g5
sg4
g5
sg6
g7
(g11
S'\xe7\xc48\x1d\x1f\xca\xe6\xbf'
p460
tp461
Rp462
sg17
I00
sg18
g5
sg19
g45
sg20
S'john.echols@enron.com'
p463
sg22
I2234774
sg23
g5
sg24
g5
sg28
g5
sg29
g5
sg30
g7
(g11
S'\xe4\xdf\x08G\xe3\x00\xd3\xbf'
p464
tp465
Rp466
sg34
g5
sg35
g7
(g11
S')\x17Y\xb1\xcd_\xe6\xbf'
p467
tp468
Rp469
sg39
I1008941
sg40
g5
sg41
g5
sg42
I407503
sg43
I182245
sg44
g45
sg46
I2692324
sg47
g45
sg48
g45
sg49
g7
(g11
S'\\\xc3`\x05_\x94\xdb\xbf'
p470
tp471
Rp472
sg50
F0.06769058998842635
ssS'MENDELSOHN JOHN'
p473
(dp474
g3
g5
sg4
g5
sg6
g7
(g11
S'\x0e~\xd8\xb3\xb2\xda\xf2\xbf'
p475
tp476
Rp477
sg17
I00
sg18
I-103750
sg19
g45
sg20
g5
sg22
g5
sg23
g5
sg24
g5
sg28
g5
sg29
g5
sg30
g5
sg34
I103750
sg35
g5
sg39
g5
sg40
g5
sg41
g5
sg42
g5
sg43
g5
sg44
g45
sg46
I148
sg47
g45
sg48
g45
sg49
g5
sg50
g45
ssS'HICKERSON GARY J'
p478
(dp479
g3
I1320
sg4
g5
sg6
g7
(g11
S'+2\xd5D\xad(\xef?'
p480
tp481
Rp482
sg17
I00
sg18
g5
sg19
F0.037037037037037035
sg20
S'gary.hickerson@enron.com'
p483
sg22
I69223
sg23
g5
sg24
g7
(g11
S'\xfd\x8e\x05\x91Y5\xce\xbf'
p484
tp485
Rp486
sg28
g5
sg29
I27
sg30
g7
(g11
S'd\x00\xd5\x16\x0fd\xd5\xbf'
p487
tp488
Rp489
sg34
g5
sg35
g7
(g11
S'\xebg\xf9\xd3cA\xd6?'
p490
tp491
Rp492
sg39
I441096
sg40
I40
sg41
I1
sg42
I441096
sg43
I211788
sg44
g45
sg46
I2081796
sg47
g45
sg48
F0.030303030303030304
sg49
g5
sg50
F0.10173331104488624
ssS'CLINE KENNETH W'
p493
(dp494
g3
g5
sg4
g5
sg6
g5
sg17
I00
sg18
g5
sg19
g45
sg20
g5
sg22
g5
sg23
I-472568
sg24
g5
sg28
g5
sg29
g5
sg30
g5
sg34
g5
sg35
g5
sg39
I189518
sg40
g5
sg41
g5
sg42
I662086
sg43
g5
sg44
g45
sg46
g5
sg47
g45
sg48
g45
sg49
g5
sg50
g45
ssS'LEWIS RICHARD'
p495
(dp496
g3
I952
sg4
g5
sg6
g5
sg17
I00
sg18
g5
sg19
F0.0
sg20
S'richard.lewis@enron.com'
p497
sg22
g5
sg23
g5
sg24
g7
(g11
S'\xd7\xb7\n\xcdp\xe6\xd7\xbf'
p498
tp499
Rp500
sg28
g5
sg29
I26
sg30
g5
sg34
g5
sg35
g5
sg39
I850477
sg40
I10
sg41
I0
sg42
g5
sg43
g5
sg44
g45
sg46
g5
sg47
g45
sg48
F0.01050420168067227
sg49
g7
(g11
S'N\xec+_\xbb\xaa\xd8\xbf'
p501
tp502
Rp503
sg50
g45
ssS'HAYES ROBERT E'
p504
(dp505
g3
I504
sg4
I7961
sg6
g5
sg17
I00
sg18
g5
sg19
F0.0
sg20
S'robert.hayes@enron.com'
p506
sg22
g5
sg23
g5
sg24
g7
(g11
S"'\xe6\x1d\x80p\xc5\xee\xbf"
p507
tp508
Rp509
sg28
g5
sg29
I12
sg30
g5
sg34
g5
sg35
g5
sg39
I151418
sg40
I16
sg41
I0
sg42
I151418
sg43
g5
sg44
g45
sg46
I7961
sg47
g45
sg48
F0.031746031746031744
sg49
g5
sg50
g45
ssS'MCCARTY DANNY J'
p510
(dp511
g3
I1433
sg4
g5
sg6
g5
sg17
I00
sg18
g5
sg19
F0.009302325581395349
sg20
S'danny.mccarty@enron.com'
p512
sg22
g5
sg23
g5
sg24
g7
(g11
S'\xd2[\xba\x10\x9eB\xe2\xbf'
p513
tp514
Rp515
sg28
g5
sg29
I215
sg30
g5
sg34
g5
sg35
g5
sg39
I758931
sg40
I25
sg41
I2
sg42
I94556
sg43
g5
sg44
g45
sg46
g5
sg47
g45
sg48
F0.017445917655268667
sg49
g7
(g11
S'G\xdcl\x02\xef\xd7\xda\xbf'
p516
tp517
Rp518
sg50
g45
ssS'KOPPER MICHAEL J'
p519
(dp520
g3
g5
sg4
g5
sg6
g7
(g11
S'\xe7\xd2\x87\n\xb1N\xf6?'
p521
tp522
Rp523
sg17
I01
sg18
g5
sg19
g45
sg20
S'michael.kopper@enron.com'
p524
sg22
I602671
sg23
g5
sg24
g5
sg28
g5
sg29
g5
sg30
g7
(g11
S'-SG\xb7`P\xd4?'
p525
tp526
Rp527
sg34
g5
sg35
g7
(g11
S'l%\x07\x80h\xf2\xd1\xbf'
p528
tp529
Rp530
sg39
I985032
sg40
g5
sg41
g5
sg42
I985032
sg43
I224305
sg44
g45
sg46
I2652612
sg47
g45
sg48
g45
sg49
g5
sg50
F0.08456004873686766
ssS'LEFF DANIEL P'
p531
(dp532
g3
I2822
sg4
g5
sg6
g5
sg17
I00
sg18
g5
sg19
F0.2222222222222222
sg20
S'dan.leff@enron.com'
p533
sg22
I1387399
sg23
g5
sg24
g7
(g11
S'\xc3\xf1\xf5\xf6.m\xf4?'
p534
tp535
Rp536
sg28
g5
sg29
I63
sg30
g7
(g11
S'\x9d\x0fu:\x89V\xd5\xbf'
p537
tp538
Rp539
sg34
g5
sg35
g7
(g11
S'\xebD\x9c\x13\xaf\x06\xc2\xbf'
p540
tp541
Rp542
sg39
I360528
sg40
I67
sg41
I14
sg42
I360528
sg43
I273746
sg44
g45
sg46
I2664228
sg47
g45
sg48
F0.02374202693125443
sg49
g5
sg50
F0.10274871369867744
ssS'LAVORATO JOHN J'
p543
(dp544
g3
I7259
sg4
g5
sg6
g7
(g11
S'&\x99\x7f\xa2\xdc\xfb\xb9\xbf'
p545
tp546
Rp547
sg17
I00
sg18
g5
sg19
F0.15899419729206962
sg20
S'john.lavorato@enron.com'
p548
sg22
I2035380
sg23
g5
sg24
g7
(g11
S'\xe9\xb7\xa3\x9c\xda\x05\x03@'
p549
tp550
Rp551
sg28
g5
sg29
I2585
sg30
g7
(g11
S':\x85\xb7\x12\x96h\xd5\xbf'
p552
tp553
Rp554
sg34
g5
sg35
g7
(g11
S'U\xd4\xff\xa1\xbf\xfa\x12@'
p555
tp556
Rp557
sg39
I5167144
sg40
I528
sg41
I411
sg42
I1008149
sg43
I339288
sg44
g45
sg46
I10425757
sg47
g45
sg48
F0.07273729163796666
sg49
g7
(g11
S'\x8dLTKa\x0e\xcc?'
p558
tp559
Rp560
sg50
F0.03254324841831629
ssS'BERBERIAN DAVID'
p561
(dp562
g3
g5
sg4
g5
sg6
g7
(g11
S'\x83\xce\xda\xbf\xab\x83\xed\xbf'
p563
tp564
Rp565
sg17
I00
sg18
g5
sg19
g45
sg20
S'david.berberian@enron.com'
p566
sg22
g5
sg23
g5
sg24
g5
sg28
g5
sg29
g5
sg30
g5
sg34
g5
sg35
g5
sg39
I2493616
sg40
g5
sg41
g5
sg42
I869220
sg43
I216582
sg44
g45
sg46
I228474
sg47
g45
sg48
g45
sg49
g7
(g11
S'?j:g";\xcf\xbf'
p567
tp568
Rp569
sg50
F0.9479503138212663
ssS'DETMERING TIMOTHY J'
p570
(dp571
g3
g5
sg4
I875307
sg6
g7
(g11
S'\x82!\xa3Z\xda\x9f\xa5\xbf'
p572
tp573
Rp574
sg17
I00
sg18
I-775241
sg19
g45
sg20
S'timothy.detmering@enron.com'
p575
sg22
I415657
sg23
I-315068
sg24
g5
sg28
g5
sg29
g5
sg30
g7
(g11
S'\xdb3\xed3\xdbm\xd5\xbf'
p576
tp577
Rp578
sg34
g5
sg35
g7
(g11
S'~\x05\xd9&TY\xe1\xbf'
p579
tp580
Rp581
sg39
I2027865
sg40
g5
sg41
g5
sg42
I315068
sg43
I210500
sg44
g45
sg46
I1204583
sg47
g45
sg48
g45
sg49
g7
(g11
S'\xf3\xa3q\xcc\x1b\xcb\xc5\xbf'
p582
tp583
Rp584
sg50
F0.17474927007935526
ssS'WAKEHAM JOHN'
p585
(dp586
g3
g5
sg4
g5
sg6
g7
(g11
S'\xfaM\xb0u\x1aL\xf1?'
p587
tp588
Rp589
sg17
I00
sg18
g5
sg19
g45
sg20
g5
sg22
g5
sg23
g5
sg24
g5
sg28
g5
sg29
g5
sg30
g5
sg34
I109298
sg35
g5
sg39
g5
sg40
g5
sg41
g5
sg42
g5
sg43
g5
sg44
g45
sg46
I213071
sg47
g45
sg48
g45
sg49
g5
sg50
g45
ssS'POWERS WILLIAM'
p590
(dp591
g3
I653
sg4
g5
sg6
g5
sg17
I00
sg18
I-17500
sg19
F0.0
sg20
S'ken.powers@enron.com'
p592
sg22
g5
sg23
g5
sg24
g7
(g11
S'\x1eB\xdb\xff,\xcf\xef\xbf'
p593
tp594
Rp595
sg28
g5
sg29
I26
sg30
g5
sg34
I17500
sg35
g5
sg39
g5
sg40
I0
sg41
I0
sg42
g5
sg43
g5
sg44
g45
sg46
g5
sg47
g45
sg48
F0.0
sg49
g5
sg50
g45
ssS'GOLD JOSEPH'
p596
(dp597
g3
g5
sg4
g5
sg6
g5
sg17
I00
sg18
g5
sg19
g45
sg20
S'joe.gold@enron.com'
p598
sg22
I304805
sg23
g5
sg24
g5
sg28
g5
sg29
g5
sg30
g7
(g11
S'\x96\xd7KWZ@\xd0?'
p599
tp600
Rp601
sg34
g5
sg35
g7
(g11
S'*f\x95\xbd,.\xd4\xbf'
p602
tp603
Rp604
sg39
I877611
sg40
g5
sg41
g5
sg42
I441096
sg43
I272880
sg44
g45
sg46
I2146973
sg47
g45
sg48
g45
sg49
g7
(g11
S'\xe3\xa0\xd2[)\x82\xdd\xbf'
p605
tp606
Rp607
sg50
F0.12709987503336093
ssS'BANNANTINE JAMES M'
p608
(dp609
g3
I566
sg4
g5
sg6
g7
(g11
S' \xe0\xdco[\x8b\xa7?'
p610
tp611
Rp612
sg17
I00
sg18
I-5104
sg19
F0.0
sg20
S'james.bannantine@enron.com'
p613
sg22
g5
sg23
I-560222
sg24
g7
(g11
S'\xa0\xca\xbf\xaeQo\xe3\xbf'
p614
tp615
Rp616
sg28
g5
sg29
I29
sg30
g7
(g11
S'\x96\xfb2\x0b\xaaU\xd2?'
p617
tp618
Rp619
sg34
g5
sg35
g5
sg39
I5243487
sg40
I39
sg41
I0
sg42
I1757552
sg43
I477
sg44
g45
sg46
I916197
sg47
g45
sg48
F0.06890459363957598
sg49
g7
(g11
S'\xfc&\x7f\xf0\xb0j\xc9?'
p620
tp621
Rp622
sg50
F0.0005206303884426602
ssS'DUNCAN JOHN H'
p623
(dp624
g3
g5
sg4
g5
sg6
g5
sg17
I00
sg18
I-25000
sg19
g45
sg20
g5
sg22
g5
sg23
g5
sg24
g5
sg28
g5
sg29
g5
sg30
g5
sg34
I102492
sg35
g5
sg39
I371750
sg40
g5
sg41
g5
sg42
g5
sg43
g5
sg44
g45
sg46
I77492
sg47
g45
sg48
g45
sg49
g7
(g11
S'w%U\x7f\x12D\xde\xbf'
p625
tp626
Rp627
sg50
g45
ssS'SHAPIRO RICHARD S'
p628
(dp629
g3
I15149
sg4
g5
sg6
g7
(g11
S'\xfdT@\xf1\x1f(\xfd?'
p630
tp631
Rp632
sg17
I00
sg18
g5
sg19
F0.053497942386831275
sg20
S'richard.shapiro@enron.com'
p633
sg22
g5
sg23
g5
sg24
g7
(g11
S'\x13\xcc\x17\xb4\x9f\xe1\x06@'
p634
tp635
Rp636
sg28
g5
sg29
I1215
sg30
g7
(g11
S':~Nz\x92r\xd5\xbf'
p637
tp638
Rp639
sg34
g5
sg35
g7
(g11
S'\xa6\xe7\xb18\xb5\xa5\xd8\xbf'
p640
tp641
Rp642
sg39
I987001
sg40
I74
sg41
I65
sg42
I379164
sg43
I269076
sg44
g45
sg46
I1057548
sg47
g45
sg48
F0.0048848108786058485
sg49
g7
(g11
S'\xac\x835O6\x81\xdb\xbf'
p643
tp644
Rp645
sg50
F0.25443384130082036
ssS'SHERRIFF JOHN R'
p646
(dp647
g3
I3187
sg4
g5
sg6
g5
sg17
I00
sg18
g5
sg19
F0.25
sg20
S'john.sherriff@enron.com'
p648
sg22
I554422
sg23
g5
sg24
g7
(g11
S'f\x1d\x15\xabPO\xe9?'
p649
tp650
Rp651
sg28
g5
sg29
I92
sg30
g7
(g11
S'[5l\xfc\x00\xe9\xef?'
p652
tp653
Rp654
sg34
g5
sg35
g7
(g11
S'\xe8\xc9\x80\xbb\xa5\xa4\xca?'
p655
tp656
Rp657
sg39
I3128982
sg40
I28
sg41
I23
sg42
I1293424
sg43
I428780
sg44
g45
sg46
I4335388
sg47
g45
sg48
F0.008785691873235017
sg49
g7
(g11
S'7\xf3D\x1a\xabJ\xca\xbf'
p658
tp659
Rp660
sg50
F0.09890233584629565
ssS'SHELBY REX'
p661
(dp662
g3
I225
sg4
g5
sg6
g7
(g11
S'\x9d\xc4n\xc8D\xd8\xe5\xbf'
p663
tp664
Rp665
sg17
I01
sg18
I-4167
sg19
F0.358974358974359
sg20
S'rex.shelby@enron.com'
p666
sg22
g5
sg23
g5
sg24
g7
(g11
S'\x15\xb2\x9bT\xb9\xa6\xed\xbf'
p667
tp668
Rp669
sg28
g5
sg29
I39
sg30
g7
(g11
S'o\xd8\xa4\x1c$}\xe9?'
p670
tp671
Rp672
sg34
g5
sg35
g7
(g11
S')\x17Y\xb1\xcd_\xe6\xbf'
p673
tp674
Rp675
sg39
I2493616
sg40
I13
sg41
I14
sg42
I869220
sg43
I211844
sg44
g45
sg46
I2003885
sg47
g45
sg48
F0.057777777777777775
sg49
g7
(g11
S'?j:g";\xcf\xbf'
p676
tp677
Rp678
sg50
F0.10571664541627888
ssS'LEMAISTRE CHARLES'
p679
(dp680
g3
g5
sg4
g5
sg6
g5
sg17
I00
sg18
I-25000
sg19
g45
sg20
g5
sg22
g5
sg23
g5
sg24
g5
sg28
g5
sg29
g5
sg30
g5
sg34
I112492
sg35
g5
sg39
I412878
sg40
g5
sg41
g5
sg42
g5
sg43
g5
sg44
g45
sg46
I87492
sg47
g45
sg48
g45
sg49
g7
(g11
S'\xb5~<\xab\xee\xc8\xdd\xbf'
p681
tp682
Rp683
sg50
g45
ssS'DEFFNER JOSEPH M'
p684
(dp685
g3
I714
sg4
g5
sg6
g7
(g11
S'\x82\x15\x8ap\x1b\x89\xd1\xbf'
p686
tp687
Rp688
sg17
I00
sg18
g5
sg19
F0.05405405405405406
sg20
S'joseph.deffner@enron.com'
p689
sg22
I335349
sg23
g5
sg24
g7
(g11
S'\xa6Os9\xec\x0e\xe1\xbf'
p690
tp691
Rp692
sg28
g5
sg29
I74
sg30
g7
(g11
S'\xa3*B\x8f\x9eM\xd4\xbf'
p693
tp694
Rp695
sg34
g5
sg35
g7
(g11
S'c(@vy\xe1\xda\xbf'
p696
tp697
Rp698
sg39
I159211
sg40
I115
sg41
I4
sg42
I141833
sg43
I206121
sg44
g45
sg46
I1208649
sg47
g45
sg48
F0.16106442577030813
sg49
g7
(g11
S'\xdf\xd47\xf1\x8a4\xe1\xbf'
p699
tp700
Rp701
sg50
F0.17053834487928257
ssS'KISHKILL JOSEPH G'
p702
(dp703
g3
g5
sg4
g5
sg6
g7
(g11
S'2\xd8W\x9f\x05\xae\xf5?'
p704
tp705
Rp706
sg17
I00
sg18
I-51042
sg19
g45
sg20
S'joe.kishkill@enron.com'
p707
sg22
g5
sg23
g5
sg24
g5
sg28
g5
sg29
g5
sg30
g7
(g11
S'\x89F\x1d\x8fk\xd7H\xbf'
p708
tp709
Rp710
sg34
g5
sg35
g5
sg39
I1034346
sg40
g5
sg41
g5
sg42
I1034346
sg43
I174246
sg44
g45
sg46
I704896
sg47
g45
sg48
g45
sg49
g5
sg50
F0.2471939122934447
ssS'WHALLEY LAWRENCE G'
p711
(dp712
g3
I6019
sg4
g5
sg6
g7
(g11
S'\xdf\xb7\xcb\xaa\x00Z\xb4?'
p713
tp714
Rp715
sg17
I00
sg18
g5
sg19
F0.04316546762589928
sg20
S'greg.whalley@enron.com'
p716
sg22
I808346
sg23
g5
sg24
g7
(g11
S'\x8d\xc3rCm\xbc\x02@'
p717
tp718
Rp719
sg28
g5
sg29
I556
sg30
g7
(g11
S'\x8d\x04\xdd\xcaew\xbe\xbf'
p720
tp721
Rp722
sg34
g5
sg35
g7
(g11
S'\xcc\xfe\x1a\x85\xd4\x14\xf4?'
p723
tp724
Rp725
sg39
I6079137
sg40
I186
sg41
I24
sg42
I2796177
sg43
I510364
sg44
g45
sg46
I4677574
sg47
g45
sg48
F0.03090214321315833
sg49
g7
(g11
S'Em\x08\x11DB\xae?'
p726
tp727
Rp728
sg50
F0.10910869608904103
ssS'MCCONNELL MICHAEL S'
p729
(dp730
g3
I3329
sg4
g5
sg6
g7
(g11
S'\xfd\x13\x16\x05}\xf5\xe2?'
p731
tp732
Rp733
sg17
I00
sg18
g5
sg19
F0.07075127644055434
sg20
S'mike.mcconnell@enron.com'
p734
sg22
I554422
sg23
g5
sg24
g7
(g11
S'\x01\xfb\x1f\xe7\xb7\xa8\xeb?'
p735
tp736
Rp737
sg28
g5
sg29
I2742
sg30
g7
(g11
S'N\xd3\x89z\x84t\xd5\xbf'
p738
tp739
Rp740
sg34
g5
sg35
g7
(g11
S'\xe7\x83\xc6:</\xb2\xbf'
p741
tp742
Rp743
sg39
I3101279
sg40
I92
sg41
I194
sg42
I1478269
sg43
I365038
sg44
g45
sg46
I2101364
sg47
g45
sg48
F0.02763592670471613
sg49
g7
(g11
S'\x1a4\xa3\x16oC\xcf\xbf'
p744
tp745
Rp746
sg50
F0.17371478715729402
ssS'PIRO JIM'
p747
(dp748
g3
I58
sg4
g5
sg6
g5
sg17
I00
sg18
g5
sg19
F0.0625
sg20
S'jim.piro@enron.com'
p749
sg22
g5
sg23
g5
sg24
g7
(g11
S'6\xe5\x94\x81\x0e\x07\xf0\xbf'
p750
tp751
Rp752
sg28
g5
sg29
I16
sg30
g5
sg34
g5
sg35
g5
sg39
I47304
sg40
I0
sg41
I1
sg42
I47304
sg43
g5
sg44
g45
sg46
g5
sg47
g45
sg48
F0.0
sg49
g5
sg50
g45
ssS'DELAINEY DAVID W'
p753
(dp754
g3
I3093
sg4
g5
sg6
g7
(g11
S']\xb8p\xcb\xa7P\xe6?'
p755
tp756
Rp757
sg17
I01
sg18
g5
sg19
F0.198435972629521
sg20
S'david.delainey@enron.com'
p758
sg22
I1294981
sg23
g5
sg24
g7
(g11
S'1m\x8bS[%\xe9?'
p759
tp760
Rp761
sg28
g5
sg29
I3069
sg30
g7
(g11
S'\x85\xe37\x17Mg\xd5\xbf'
p762
tp763
Rp764
sg34
g5
sg35
g7
(g11
S'\xcc\xfe\x1a\x85\xd4\x14\xf4?'
p765
tp766
Rp767
sg39
I3614261
sg40
I66
sg41
I609
sg42
I1323148
sg43
I365163
sg44
g45
sg46
I4747979
sg47
g45
sg48
F0.02133850630455868
sg49
g7
(g11
S'\r\xcd\xfaI}E\xbf\xbf'
p768
tp769
Rp770
sg50
F0.07690914386942319
ssS'SULLIVAN-SHAKLOVITZ COLLEEN'
p771
(dp772
g3
g5
sg4
I181993
sg6
g5
sg17
I00
sg18
g5
sg19
g45
sg20
g5
sg22
I554422
sg23
g5
sg24
g5
sg28
g5
sg29
g5
sg30
g7
(g11
S'\x10\xce|Z\xf9x\xd5\xbf'
p773
tp774
Rp775
sg34
g5
sg35
g7
(g11
S'\xe6W\xe7\xee\x91\x9b\xe8\xbf'
p776
tp777
Rp778
sg39
I1362375
sg40
g5
sg41
g5
sg42
g5
sg43
I162779
sg44
g45
sg46
I999356
sg47
g45
sg48
g45
sg49
g7
(g11
S'\x0e\x1fzN\x13\xae\xd2\xbf'
p779
tp780
Rp781
sg50
F0.162883897229816
ssS'WROBEL BRUCE'
p782
(dp783
g3
g5
sg4
g5
sg6
g5
sg17
I00
sg18
g5
sg19
g45
sg20
g5
sg22
g5
sg23
g5
sg24
g5
sg28
g5
sg29
g5
sg30
g5
sg34
g5
sg35
g5
sg39
I139130
sg40
g5
sg41
g5
sg42
g5
sg43
g5
sg44
g45
sg46
g5
sg47
g45
sg48
g45
sg49
g7
(g11
S'\x04\xcd\xe0\xa5F~\xe0\xbf'
p784
tp785
Rp786
sg50
g45
ssS'LINDHOLM TOD A'
p787
(dp788
g3
g5
sg4
I204075
sg6
g7
(g11
S'\xb5\x8d\xd6\x1bc\xbb\xb3?'
p789
tp790
Rp791
sg17
I00
sg18
g5
sg19
g45
sg20
S'tod.lindholm@enron.com'
p792
sg22
I175000
sg23
g5
sg24
g5
sg28
g5
sg29
g5
sg30
g7
(g11
S'QH\x9aw\xe0[\xd5\xbf'
p793
tp794
Rp795
sg34
g5
sg35
g7
(g11
S')\x17Y\xb1\xcd_\xe6\xbf'
p796
tp797
Rp798
sg39
I3064208
sg40
g5
sg41
g5
sg42
I514847
sg43
I236457
sg44
g45
sg46
I875889
sg47
g45
sg48
g45
sg49
g7
(g11
S'\xa9\xc5\x88\x99\xa40\xb3\xbf'
p799
tp800
Rp801
sg50
F0.2699622897421934
ssS'MEYER JEROME J'
p802
(dp803
g3
g5
sg4
g5
sg6
g7
(g11
S"\x81>\xc0!\xcf'\xf2\xbf"
p804
tp805
Rp806
sg17
I00
sg18
I-38346
sg19
g45
sg20
g5
sg22
g5
sg23
g5
sg24
g5
sg28
g5
sg29
g5
sg30
g5
sg34
I38346
sg35
g5
sg39
g5
sg40
g5
sg41
g5
sg42
g5
sg43
g5
sg44
g45
sg46
I2151
sg47
g45
sg48
g45
sg49
g5
sg50
g45
ssS'LAY KENNETH L'
p807
(dp808
g3
I4273
sg4
I202911
sg6
g7
(g11
S'\xd7\x00\xf3\xe3B\xd8\xef?'
p809
tp810
Rp811
sg17
I01
sg18
I-300000
sg19
F0.4444444444444444
sg20
S'kenneth.lay@enron.com'
p812
sg22
I3600000
sg23
g5
sg24
g7
(g11
S'M9\x03\xc7\x96\xdc\xf0?'
p813
tp814
Rp815
sg28
I81525000
sg29
I36
sg30
g7
(g11
S'\x9f\xca\x08\x04\x03z\x1c@'
p816
tp817
Rp818
sg34
g5
sg35
g7
(g11
S'g\x03\x0eU\n0\x10@'
p819
tp820
Rp821
sg39
I49110078
sg40
I123
sg41
I16
sg42
I14761694
sg43
I1072321
sg44
g45
sg46
I103559793
sg47
g45
sg48
F0.028785396676807865
sg49
g7
(g11
S'\x9a\x983\x83\xc3\xf1\x16@'
p822
tp823
Rp824
sg50
F0.010354607410233042
ssS'BUTTS ROBERT H'
p825
(dp826
g3
g5
sg4
g5
sg6
g7
(g11
S'[\x04D\x1d\x02?\xef\xbf'
p827
tp828
Rp829
sg17
I00
sg18
I-75000
sg19
g45
sg20
S'bob.butts@enron.com'
p830
sg22
I175000
sg23
g5
sg24
g5
sg28
g5
sg29
g5
sg30
g7
(g11
S'O\x94\xdd\x8b\\\x15\xcd\xbf'
p831
tp832
Rp833
sg34
g5
sg35
g7
(g11
S'*f\x95\xbd,.\xd4\xbf'
p834
tp835
Rp836
sg39
I417619
sg40
g5
sg41
g5
sg42
I417619
sg43
I261516
sg44
g45
sg46
I1271582
sg47
g45
sg48
g45
sg49
g5
sg50
F0.20566192349372672
ssS'OLSON CINDY K'
p837
(dp838
g3
I1184
sg4
I77716
sg6
g7
(g11
S'\x84\xc6\xb7/S\xca\xca?'
p839
tp840
Rp841
sg17
I00
sg18
g5
sg19
F0.28846153846153844
sg20
S'cindy.olson@enron.com'
p842
sg22
I100000
sg23
g5
sg24
g7
(g11
S'\xd6\xdf\x10w\x10\x82\xd1\xbf'
p843
tp844
Rp845
sg28
g5
sg29
I52
sg30
g7
(g11
S'\xdd\xfd*\x9flo\xd5\xbf'
p846
tp847
Rp848
sg34
g5
sg35
g7
(g11
S'*f\x95\xbd,.\xd4\xbf'
p849
tp850
Rp851
sg39
I2606763
sg40
I20
sg41
I15
sg42
I969729
sg43
I329078
sg44
g45
sg46
I1321557
sg47
g45
sg48
F0.016891891891891893
sg49
g7
(g11
S'\xb1\xfc\xab\xd4t\xef\xce\xbf'
p852
tp853
Rp854
sg50
F0.2490077991339004
ssS'MCDONALD REBECCA'
p855
(dp856
g3
I894
sg4
g5
sg6
g5
sg17
I00
sg18
g5
sg19
F0.07692307692307693
sg20
S'rebecca.mcdonald@enron.com'
p857
sg22
g5
sg23
g5
sg24
g7
(g11
S'\xce\x13\xc8L-\xf0\xd8\xbf'
p858
tp859
Rp860
sg28
g5
sg29
I13
sg30
g5
sg34
g5
sg35
g5
sg39
I1691366
sg40
I54
sg41
I1
sg42
I934065
sg43
g5
sg44
g45
sg46
g5
sg47
g45
sg48
F0.06040268456375839
sg49
g7
(g11
S'\x03U0\x00\xb5\xc1\xd9\xbf'
p861
tp862
Rp863
sg50
g45
ssS'CUMBERLAND MICHAEL S'
p864
(dp865
g3
g5
sg4
g5
sg6
g7
(g11
S'A^-Z\xb98\xe6\xbf'
p866
tp867
Rp868
sg17
I00
sg18
g5
sg19
g45
sg20
g5
sg22
I275000
sg23
g5
sg24
g5
sg28
g5
sg29
g5
sg30
g7
(g11
S'u\x1b\x0fUzr\xd5\xbf'
p869
tp870
Rp871
sg34
g5
sg35
g7
(g11
S';Fgd\x18\x95\xe3\xbf'
p872
tp873
Rp874
sg39
I207940
sg40
g5
sg41
g5
sg42
I207940
sg43
I184899
sg44
g45
sg46
I807956
sg47
g45
sg48
g45
sg49
g5
sg50
F0.2288478580516761
ssS'GAHN ROBERT S'
p875
(dp876
g3
g5
sg4
I73122
sg6
g7
(g11
S'\xe6\xca\xf9\xa1\xee\xf3\xb6\xbf'
p877
tp878
Rp879
sg17
I00
sg18
I-1042
sg19
g45
sg20
g5
sg22
g5
sg23
g5
sg24
g5
sg28
g5
sg29
g5
sg30
g7
(g11
S'r*\xbd\x1di\xf4\xd1\xbf'
p880
tp881
Rp882
sg34
g5
sg35
g7
(g11
S'\x88\x9a\x03\x10$\xe8\xde\xbf'
p883
tp884
Rp885
sg39
I318607
sg40
g5
sg41
g5
sg42
I235370
sg43
I192008
sg44
g45
sg46
I900585
sg47
g45
sg48
g45
sg49
g7
(g11
S'_R\x9a\x1b\xf3\xd1\xe0\xbf'
p886
tp887
Rp888
sg50
F0.21320363985631563
ssS'MCCLELLAN GEORGE'
p889
(dp890
g3
I1744
sg4
g5
sg6
g7
(g11
S'\x9aBF\x0b\x83s\x0e@'
p891
tp892
Rp893
sg17
I00
sg18
I-125000
sg19
F0.0
sg20
S'george.mcclellan@enron.com'
p894
sg22
g5
sg23
g5
sg24
g7
(g11
S'\x85\x89Uz\xdb\xf6\xcf?'
p895
tp896
Rp897
sg28
g5
sg29
I49
sg30
g7
(g11
S'\xc7\xe4@\x12\xaf\x1a\xd3\xbf'
p898
tp899
Rp900
sg34
g5
sg35
g7
(g11
S'\xe2G\xd5\t\xc0\xf5\xca\xbf'
p901
tp902
Rp903
sg39
I947861
sg40
I52
sg41
I0
sg42
I441096
sg43
I263413
sg44
g45
sg46
I1318763
sg47
g45
sg48
F0.02981651376146789
sg49
g7
(g11
S'^+l\x12\xd4\xaf\xdc\xbf'
p904
tp905
Rp906
sg50
F0.1997424859508494
ssS'HERMANN ROBERT J'
p907
(dp908
g3
g5
sg4
g5
sg6
g7
(g11
S'\xae\xac\xfa\xa9\x05I\xc0\xbf'
p909
tp910
Rp911
sg17
I00
sg18
I-280000
sg19
g45
sg20
S'robert.hermann@enron.com'
p912
sg22
I150000
sg23
g5
sg24
g5
sg28
g5
sg29
g5
sg30
g7
(g11
S'\xf4\xbf\xe0\xe1\ni\xa2\xbf'
p913
tp914
Rp915
sg34
g5
sg35
g7
(g11
S'\xe8\xa6#\xfb\xf0i\xd6\xbf'
p916
tp917
Rp918
sg39
I668132
sg40
g5
sg41
g5
sg42
I480632
sg43
I262663
sg44
g45
sg46
I1297461
sg47
g45
sg48
g45
sg49
g7
(g11
S'\x87\x96bN\xdd5\xe0\xbf'
p919
tp920
Rp921
sg50
F0.20244384995001777
ssS'SCRIMSHAW MATTHEW'
p922
(dp923
g3
g5
sg4
g5
sg6
g5
sg17
I00
sg18
g5
sg19
g45
sg20
S'matthew.scrimshaw@enron.com'
p924
sg22
g5
sg23
g5
sg24
g5
sg28
g5
sg29
g5
sg30
g5
sg34
g5
sg35
g5
sg39
I759557
sg40
g5
sg41
g5
sg42
g5
sg43
g5
sg44
g45
sg46
g5
sg47
g45
sg48
g45
sg49
g7
(g11
S'M\xd5\xd8\xd1\xf3\xba\xd9\xbf'
p925
tp926
Rp927
sg50
g45
ssS'GATHMANN WILLIAM D'
p928
(dp929
g3
g5
sg4
g5
sg6
g5
sg17
I00
sg18
g5
sg19
g45
sg20
g5
sg22
g5
sg23
I-72419
sg24
g5
sg28
g5
sg29
g5
sg30
g5
sg34
g5
sg35
g5
sg39
I1945360
sg40
g5
sg41
g5
sg42
I264013
sg43
g5
sg44
g45
sg46
g5
sg47
g45
sg48
g45
sg49
g7
(g11
S'$\xe9N\x1fs4\xcc\xbf'
p930
tp931
Rp932
sg50
g45
ssS'HAEDICKE MARK E'
p933
(dp934
g3
I4009
sg4
I2157527
sg6
g7
(g11
S'\xa9\xfa\x1f\xb7\x1a\xab\xde?'
p935
tp936
Rp937
sg17
I00
sg18
I-934484
sg19
F0.03142709943328181
sg20
S'mark.haedicke@enron.com'
p938
sg22
I983346
sg23
I-329825
sg24
g7
(g11
S'O\xbfwi\x17Q\xe2?'
p939
tp940
Rp941
sg28
g5
sg29
I1941
sg30
g7
(g11
S'\xc4\xed\xc5\x9cO\x11\xd3\xbf'
p942
tp943
Rp944
sg34
g5
sg35
g7
(g11
S'\xe1\x01\x1b\x89V\x80\xa2\xbf'
p945
tp946
Rp947
sg39
I803094
sg40
I180
sg41
I61
sg42
I524169
sg43
I374125
sg44
g45
sg46
I3859065
sg47
g45
sg48
F0.04489897730107259
sg49
g7
(g11
S'`M&\x83z~\xdb\xbf'
p948
tp949
Rp950
sg50
F0.09694705841959127
ssS'BOWEN JR RAYMOND M'
p951
(dp952
g3
I1858
sg4
g5
sg6
g7
(g11
S'1\xacg,\x16Y\xd0?'
p953
tp954
Rp955
sg17
I01
sg18
I-833
sg19
F0.5555555555555556
sg20
S'raymond.bowen@enron.com'
p956
sg22
I974293
sg23
g5
sg24
g7
(g11
S'\xe97\xbb4\xb5\xc1\xd6?'
p957
tp958
Rp959
sg28
g5
sg29
I27
sg30
g7
(g11
S'[\xd1t\xd1\xc5g\xd5\xbf'
p960
tp961
Rp962
sg34
g5
sg35
g7
(g11
S'\xec\x8aV\x94\x18|\xba?'
p963
tp964
Rp965
sg39
I252055
sg40
I140
sg41
I15
sg42
I252055
sg43
I278601
sg44
g45
sg46
I2669589
sg47
g45
sg48
F0.07534983853606028
sg49
g5
sg50
F0.10436100837994162
ssS'GILLIS JOHN'
p966
(dp967
g3
g5
sg4
g5
sg6
g5
sg17
I00
sg18
g5
sg19
g45
sg20
g5
sg22
g5
sg23
g5
sg24
g5
sg28
g5
sg29
g5
sg30
g5
sg34
g5
sg35
g5
sg39
I85641
sg40
g5
sg41
g5
sg42
I75838
sg43
g5
sg44
g45
sg46
g5
sg47
g45
sg48
g45
sg49
g7
(g11
S'\x89\x9f%\xfd\xe1?\xe1\xbf'
p968
tp969
Rp970
sg50
g45
ssS'FITZGERALD JAY L'
p971
(dp972
g3
I936
sg4
g5
sg6
g7
(g11
S'\xcd\xd5\xfe\xfa%(\xe5\xbf'
p973
tp974
Rp975
sg17
I00
sg18
g5
sg19
F0.5
sg20
S'jay.fitzgerald@enron.com'
p976
sg22
I556416
sg23
g5
sg24
g7
(g11
S'\x9ac>\xf57\xc6\xd8\xbf'
p977
tp978
Rp979
sg28
g5
sg29
I16
sg30
g7
(g11
S'\x7fS\xd1\xc6\xd2\xab\xc0\xbf'
p980
tp981
Rp982
sg34
g5
sg35
g7
(g11
S"\x0c\xb6\x03U'\x06\xe3\xbf"
p983
tp984
Rp985
sg39
I1621236
sg40
I1
sg41
I8
sg42
I956775
sg43
I199157
sg44
g45
sg46
I1414857
sg47
g45
sg48
F0.0010683760683760685
sg49
g7
(g11
S'A\xa5\x94\x17\xad\xd7\xda\xbf'
p986
tp987
Rp988
sg50
F0.14076122180545456
ssS'MORAN MICHAEL P'
p989
(dp990
g3
I672
sg4
g5
sg6
g5
sg17
I00
sg18
g5
sg19
F0.0
sg20
S'michael.moran@enron.com'
p991
sg22
g5
sg23
g5
sg24
g7
(g11
S'\xda\x90aG\xf9\xaa\xec\xbf'
p992
tp993
Rp994
sg28
g5
sg29
I19
sg30
g5
sg34
g5
sg35
g5
sg39
I221141
sg40
I0
sg41
I0
sg42
I161602
sg43
g5
sg44
g45
sg46
g5
sg47
g45
sg48
F0.0
sg49
g7
(g11
S'\x1f+\xfe#m\xf5\xe0\xbf'
p995
tp996
Rp997
sg50
g45
ssS'REDMOND BRIAN L'
p998
(dp999
g3
I1671
sg4
g5
sg6
g7
(g11
S'\xb6i\xc2b\x11\x90\xeb\xbf'
p1000
tp1001
Rp1002
sg17
I00
sg18
g5
sg19
F0.22171945701357465
sg20
S'brian.redmond@enron.com'
p1003
sg22
g5
sg23
g5
sg24
g7
(g11
S'\xb6\x86\xd1{\xbf\xcb\xb8\xbf'
p1004
tp1005
Rp1006
sg28
g5
sg29
I221
sg30
g5
sg34
g5
sg35
g5
sg39
I7890324
sg40
I204
sg41
I49
sg42
I381285
sg43
I96840
sg44
g45
sg46
I111529
sg47
g45
sg48
F0.12208258527827648
sg49
g7
(g11
S'\x1cr\xe7\xc6\xb8\x9a\xea?'
p1007
tp1008
Rp1009
sg50
F0.8682943449685732
ssS'BAZELIDES PHILIP J'
p1010
(dp1011
g3
g5
sg4
I684694
sg6
g5
sg17
I00
sg18
g5
sg19
g45
sg20
g5
sg22
I93750
sg23
g5
sg24
g5
sg28
g5
sg29
g5
sg30
g7
(g11
S'\xc4wsg\x94p\xd5\xbf'
p1012
tp1013
Rp1014
sg34
g5
sg35
g5
sg39
I1599641
sg40
g5
sg41
g5
sg42
g5
sg43
I80818
sg44
g45
sg46
I860136
sg47
g45
sg48
g45
sg49
g7
(g11
S'\x86\xbc\x03\xe0^\xcf\xcf\xbf'
p1015
tp1016
Rp1017
sg50
F0.0939595598835533
ssS'BELDEN TIMOTHY N'
p1018
(dp1019
g3
I7991
sg4
I2144013
sg6
g7
(g11
S'!+\xacA\xdd\xb3\xe9\xbf'
p1020
tp1021
Rp1022
sg17
I01
sg18
I-2334434
sg19
F0.2231404958677686
sg20
S'tim.belden@enron.com'
p1023
sg22
g5
sg23
g5
sg24
g7
(g11
S'\xe8\rIHf\xab\r@'
p1024
tp1025
Rp1026
sg28
g5
sg29
I484
sg30
g7
(g11
S'\x08\xe0\xc0\x8a\x98\x8d\xc7\xbf'
p1027
tp1028
Rp1029
sg34
g5
sg35
g7
(g11
S'\xd5\n \xbf\x99\x9a\x06@'
p1030
tp1031
Rp1032
sg39
I1110705
sg40
I228
sg41
I108
sg42
I157569
sg43
I213999
sg44
g45
sg46
I5501630
sg47
g45
sg48
F0.028532098610937303
sg49
g7
(g11
S'x\xac54]w\xd7\xbf'
p1033
tp1034
Rp1035
sg50
F0.03889738132153562
ssS'DURAN WILLIAM D'
p1036
(dp1037
g3
I904
sg4
g5
sg6
g7
(g11
S'\xe1Z7\xd0\x16\xd2\xe3\xbf'
p1038
tp1039
Rp1040
sg17
I00
sg18
g5
sg19
F0.25
sg20
S'w.duran@enron.com'
p1041
sg22
I1105218
sg23
g5
sg24
g7
(g11
S'\xc0\xd6\xcel\x7f\x8c\xdf\xbf'
p1042
tp1043
Rp1044
sg28
g5
sg29
I12
sg30
g7
(g11
S'\xb1\xbf8\xc8eh\xd5\xbf'
p1045
tp1046
Rp1047
sg34
g5
sg35
g7
(g11
S'*f\x95\xbd,.\xd4\xbf'
p1048
tp1049
Rp1050
sg39
I1640910
sg40
I106
sg41
I3
sg42
I189041
sg43
I210692
sg44
g45
sg46
I2093263
sg47
g45
sg48
F0.1172566371681416
sg49
g7
(g11
S'#mE\xdc\x1f\xa2\xd1\xbf'
p1051
tp1052
Rp1053
sg50
F0.10065242637929396
ssS'THORN TERENCE H'
p1054
(dp1055
g3
I266
sg4
I16586
sg6
g7
(g11
S'\xc7P"\xfcuu\xc6\xbf'
p1056
tp1057
Rp1058
sg17
I00
sg18
g5
sg19
F0.0
sg20
S'terence.thorn@enron.com'
p1059
sg22
I200000
sg23
g5
sg24
g7
(g11
S'\xb3\xc28[\x99$\xee\xbf'
p1060
tp1061
Rp1062
sg28
g5
sg29
I41
sg30
g7
(g11
S'\x11;\xa4\x16AP\x9d\xbf'
p1063
tp1064
Rp1065
sg34
g5
sg35
g5
sg39
I4817796
sg40
I0
sg41
I0
sg42
I365320
sg43
I222093
sg44
g45
sg46
I911453
sg47
g45
sg48
F0.0
sg49
g7
(g11
S'\xe43$>\xe4u\xd1?'
p1066
tp1067
Rp1068
sg50
F0.24366917438419755
ssS'FASTOW ANDREW S'
p1069
(dp1070
g3
g5
sg4
g5
sg6
g7
(g11
S's\xbf\xb3eWM\xa3?'
p1071
tp1072
Rp1073
sg17
I01
sg18
I-1386055
sg19
g45
sg20
S'andrew.fastow@enron.com'
p1074
sg22
I1736055
sg23
g5
sg24
g5
sg28
g5
sg29
g5
sg30
g7
(g11
S'\xbb\x9fl\xf4Gg\xc1\xbf'
p1075
tp1076
Rp1077
sg34
g5
sg35
g7
(g11
S'\xf5\x87\x1d\x9e\x07\x8d\xb1?'
p1078
tp1079
Rp1080
sg39
I1794412
sg40
g5
sg41
g5
sg42
I1794412
sg43
I440698
sg44
g45
sg46
I2424083
sg47
g45
sg48
g45
sg49
g5
sg50
F0.1817998806146489
ssS'FOY JOE'
p1081
(dp1082
g3
I57
sg4
I181755
sg6
g5
sg17
I00
sg18
g5
sg19
F0.0
sg20
S'tracy.foy@enron.com'
p1083
sg22
g5
sg23
g5
sg24
g7
(g11
S'\xe5\xb35\x9e\x8d\n\xf0\xbf'
p1084
tp1085
Rp1086
sg28
g5
sg29
I13
sg30
g5
sg34
g5
sg35
g5
sg39
I343434
sg40
I0
sg41
I0
sg42
g5
sg43
g5
sg44
g45
sg46
I181755
sg47
g45
sg48
F0.0
sg49
g7
(g11
S'}\xf6\x05,\xda\x98\xde\xbf'
p1087
tp1088
Rp1089
sg50
g45
ssS'CALGER CHRISTOPHER F'
p1090
(dp1091
g3
I2598
sg4
g5
sg6
g7
(g11
S'\x08=\xb0\n\xf8\xa3\xd9\xbf'
p1092
tp1093
Rp1094
sg17
I01
sg18
I-262500
sg19
F0.1736111111111111
sg20
S'christopher.calger@enron.com'
p1095
sg22
I375304
sg23
g5
sg24
g7
(g11
S'\xa3]\xde\xad\xb9\xa1\xeb?'
p1096
tp1097
Rp1098
sg28
g5
sg29
I144
sg30
g7
(g11
S"\xfc\xad\xf5u'u\xd5\xbf"
p1099
tp1100
Rp1101
sg34
g5
sg35
g7
(g11
S'\xfb\t\xc9O\xed;\xa1?'
p1102
tp1103
Rp1104
sg39
I126027
sg40
I199
sg41
I25
sg42
I126027
sg43
I240189
sg44
g45
sg46
I1639297
sg47
g45
sg48
F0.07659738260200154
sg49
g5
sg50
F0.14651951415759315
ssS'RICE KENNETH D'
p1105
(dp1106
g3
I905
sg4
g5
sg6
g7
(g11
S'\xe47\xce\x1bM6\xc4\xbf'
p1107
tp1108
Rp1109
sg17
I01
sg18
I-3504386
sg19
F0.2222222222222222
sg20
S'ken.rice@enron.com'
p1110
sg22
I1617011
sg23
g5
sg24
g7
(g11
S'\xf5\t\xf7\xe2,\x12\xd1\xbf'
p1111
tp1112
Rp1113
sg28
g5
sg29
I18
sg30
g7
(g11
S'6\xd1.\xe6"\xdb\xca\xbf'
p1114
tp1115
Rp1116
sg34
g5
sg35
g7
(g11
S'\xa9\xa8\x87\x11(}\xd8?'
p1117
tp1118
Rp1119
sg39
I22542539
sg40
I42
sg41
I4
sg42
I2748364
sg43
I420636
sg44
g45
sg46
I505050
sg47
g45
sg48
F0.04640883977900553
sg49
g7
(g11
S'\xaeLj\x88~\x9c\x08@'
p1120
tp1121
Rp1122
sg50
F0.8328601128601129
ssS'KAMINSKI WINCENTY J'
p1123
(dp1124
g3
I4607
sg4
g5
sg6
g7
(g11
S'p]\x96\xa44\x82\xe4?'
p1125
tp1126
Rp1127
sg17
I00
sg18
g5
sg19
F0.011901447661469933
sg20
S'vince.kaminski@enron.com'
p1128
sg22
I323466
sg23
g5
sg24
g7
(g11
S'AA\x81J#6\xe0\xbf'
p1129
tp1130
Rp1131
sg28
g5
sg29
I14368
sg30
g7
(g11
S'\xf9\xd2\x1eb\xd6C\xd5\xbf'
p1132
tp1133
Rp1134
sg34
g5
sg35
g7
(g11
S'\xad\x95<6E\xe8\xe1\xbf'
p1135
tp1136
Rp1137
sg39
I976037
sg40
I41
sg41
I171
sg42
I126027
sg43
I275101
sg44
g45
sg46
I1086821
sg47
g45
sg48
F0.008899500759713479
sg49
g7
(g11
S'7\x88\x80Q!\xac\xd8\xbf'
p1138
tp1139
Rp1140
sg50
F0.2531244795601116
ssS'LOCKHART EUGENE E'
p1141
(dp1142
g3
g5
sg4
g5
sg6
g5
sg17
I00
sg18
g5
sg19
g45
sg20
g5
sg22
g5
sg23
g5
sg24
g5
sg28
g5
sg29
g5
sg30
g5
sg34
g5
sg35
g5
sg39
g5
sg40
g5
sg41
g5
sg42
g5
sg43
g5
sg44
g45
sg46
g5
sg47
g45
sg48
g45
sg49
g5
sg50
g45
ssS'COX DAVID'
p1143
(dp1144
g3
I102
sg4
g5
sg6
g7
(g11
S'Ox8\x9aE_\xe2\xbf'
p1145
tp1146
Rp1147
sg17
I00
sg18
I-41250
sg19
F0.12121212121212122
sg20
S'chip.cox@enron.com'
p1148
sg22
g5
sg23
g5
sg24
g7
(g11
S'o\xfd\xbb\xcd\x952\xee\xbf'
p1149
tp1150
Rp1151
sg28
g5
sg29
I33
sg30
g7
(g11
S'7K\xb6P\x0fu\xd5\xbf'
p1152
tp1153
Rp1154
sg34
g5
sg35
g7
(g11
S'l%\x07\x80h\xf2\xd1\xbf'
p1155
tp1156
Rp1157
sg39
I495633
sg40
I0
sg41
I4
sg42
I378082
sg43
I314288
sg44
g45
sg46
I1101393
sg47
g45
sg48
F0.0
sg49
g7
(g11
S'\xffp\x1b\x98\x94\x9e\xe0\xbf'
p1158
tp1159
Rp1160
sg50
F0.28535500044035145
ssS'OVERDYKE JR JERE C'
p1161
(dp1162
g3
g5
sg4
g5
sg6
g7
(g11
S'\xe8D\x84\r\xaf\xab\xe8\xbf'
p1163
tp1164
Rp1165
sg17
I00
sg18
g5
sg19
g45
sg20
S'jere.overdyke@enron.com'
p1166
sg22
I135836
sg23
g5
sg24
g5
sg28
g5
sg29
g5
sg30
g7
(g11
S'9\xe1M\x19\xcfx\xd5\xbf'
p1167
tp1168
Rp1169
sg34
g5
sg35
g5
sg39
I7307594
sg40
g5
sg41
g5
sg42
I2041016
sg43
I94941
sg44
g45
sg46
I249787
sg47
g45
sg48
g45
sg49
g7
(g11
S'\x04M\xb9\xea]\xfb\xda?'
p1170
tp1171
Rp1172
sg50
F0.38008783483527964
ssS'PEREIRA PAULO V. FERRAZ'
p1173
(dp1174
g3
g5
sg4
g5
sg6
g7
(g11
S'w\x14\x8f\xb7\xcdP\xe2\xbf'
p1175
tp1176
Rp1177
sg17
I00
sg18
I-101250
sg19
g45
sg20
g5
sg22
g5
sg23
g5
sg24
g5
sg28
g5
sg29
g5
sg30
g5
sg34
I101250
sg35
g5
sg39
g5
sg40
g5
sg41
g5
sg42
g5
sg43
g5
sg44
g45
sg46
I27942
sg47
g45
sg48
g45
sg49
g5
sg50
g45
ssS'STABLER FRANK'
p1178
(dp1179
g3
g5
sg4
g5
sg6
g7
(g11
S'\x0f\xb3\x9a\xa5\x15J\xea\xbf'
p1180
tp1181
Rp1182
sg17
I00
sg18
g5
sg19
g45
sg20
S'frank.stabler@enron.com'
p1183
sg22
g5
sg23
g5
sg24
g5
sg28
g5
sg29
g5
sg30
g7
(g11
S'b\x0e\xc5O\x85S\xb4\xbf'
p1184
tp1185
Rp1186
sg34
g5
sg35
g7
(g11
S'\xdf\xa9\\\xf1\x01Y\xdf\xbf'
p1187
tp1188
Rp1189
sg39
I511734
sg40
g5
sg41
g5
sg42
I511734
sg43
I239502
sg44
g45
sg46
I1112087
sg47
g45
sg48
g45
sg49
g5
sg50
F0.21536264698715119
ssS'SKILLING JEFFREY K'
p1190
(dp1191
g3
I3627
sg4
g5
sg6
g7
(g11
S'G\x12~N\xceW\xe1\xbf'
p1192
tp1193
Rp1194
sg17
I01
sg18
g5
sg19
F0.2777777777777778
sg20
S'jeff.skilling@enron.com'
p1195
sg22
I1920000
sg23
g5
sg24
g7
(g11
S'\xfa\x9dr\x06\xbd\xa4\xe7?'
p1196
tp1197
Rp1198
sg28
g5
sg29
I108
sg30
g7
(g11
S'\x83\xc1\xd2\xf5\x11v\xd4\xbf'
p1199
tp1200
Rp1201
sg34
g5
sg35
g7
(g11
S'7$\xaa\xd2\xe5\x8e\x08@'
p1202
tp1203
Rp1204
sg39
I26093672
sg40
I88
sg41
I30
sg42
I6843672
sg43
I1111258
sg44
g45
sg46
I8682716
sg47
g45
sg48
F0.0242624758753791
sg49
g7
(g11
S'9\xad\xbf\x0f\xd5\xd0\x07@'
p1205
tp1206
Rp1207
sg50
F0.12798506826665756
ssS'BLAKE JR. NORMAN P'
p1208
(dp1209
g3
g5
sg4
g5
sg6
g7
(g11
S'4\xd3_\x18\xb0u\xf2\xbf'
p1210
tp1211
Rp1212
sg17
I00
sg18
I-113784
sg19
g45
sg20
g5
sg22
g5
sg23
g5
sg24
g5
sg28
g5
sg29
g5
sg30
g5
sg34
I113784
sg35
g5
sg39
g5
sg40
g5
sg41
g5
sg42
g5
sg43
g5
sg44
g45
sg46
I1279
sg47
g45
sg48
g45
sg49
g5
sg50
g45
ssS'SHERRICK JEFFREY B'
p1213
(dp1214
g3
I613
sg4
g5
sg6
g5
sg17
I00
sg18
g5
sg19
F0.72
sg20
S'jeffrey.sherrick@enron.com'
p1215
sg22
g5
sg23
g5
sg24
g7
(g11
S'AA\x81J#6\xe0\xbf'
p1216
tp1217
Rp1218
sg28
g5
sg29
I25
sg30
g5
sg34
g5
sg35
g5
sg39
I1832468
sg40
I39
sg41
I18
sg42
I405999
sg43
g5
sg44
g45
sg46
g5
sg47
g45
sg48
F0.0636215334420881
sg49
g7
(g11
S'\xf5\xb2\xffy,\xee\xd1\xbf'
p1219
tp1220
Rp1221
sg50
g45
ssS'PRENTICE JAMES'
p1222
(dp1223
g3
g5
sg4
I564348
sg6
g5
sg17
I00
sg18
g5
sg19
g45
sg20
S'james.prentice@enron.com'
p1224
sg22
g5
sg23
g5
sg24
g5
sg28
g5
sg29
g5
sg30
g5
sg34
g5
sg35
g5
sg39
I1095040
sg40
g5
sg41
g5
sg42
I208809
sg43
g5
sg44
g45
sg46
I564348
sg47
g45
sg48
g45
sg49
g7
(g11
S'\x1f\x9c\xa4\x9c\xae?\xd8\xbf'
p1225
tp1226
Rp1227
sg50
g45
ssS'GRAY RODNEY'
p1228
(dp1229
g3
g5
sg4
I93585
sg6
g5
sg17
I00
sg18
g5
sg19
g45
sg20
g5
sg22
I365625
sg23
g5
sg24
g5
sg28
g5
sg29
g5
sg30
g7
(g11
S'\x94\x18so\xfe\xbf\xc3?'
p1230
tp1231
Rp1232
sg34
g5
sg35
g5
sg39
g5
sg40
g5
sg41
g5
sg42
g5
sg43
I6615
sg44
g45
sg46
I1146658
sg47
g45
sg48
g45
sg49
g5
sg50
F0.005768938951282772
ssS'PICKERING MARK R'
p1233
(dp1234
g3
I898
sg4
g5
sg6
g7
(g11
S'\x89\x88s\xc9\xe1s\xdf\xbf'
p1235
tp1236
Rp1237
sg17
I00
sg18
g5
sg19
F0.0
sg20
S'mark.pickering@enron.com'
p1238
sg22
g5
sg23
g5
sg24
g7
(g11
S'\xed=\xae\xb8I\x80\xd8\xbf'
p1239
tp1240
Rp1241
sg28
I400000
sg29
I67
sg30
g5
sg34
g5
sg35
g7
(g11
S'k\xd6\xcas\t$\xe4\xbf'
p1242
tp1243
Rp1244
sg39
I28798
sg40
I7
sg41
I0
sg42
g5
sg43
I655037
sg44
g45
sg46
I1386690
sg47
g45
sg48
F0.0077951002227171495
sg49
g7
(g11
S'\xd5e\x06Vr#\xe1\xbf'
p1245
tp1246
Rp1247
sg50
F0.47237450331364617
ssS'NOLES JAMES L'
p1248
(dp1249
g3
g5
sg4
I774401
sg6
g5
sg17
I00
sg18
g5
sg19
g45
sg20
g5
sg22
g5
sg23
I-94556
sg24
g5
sg28
g5
sg29
g5
sg30
g5
sg34
g5
sg35
g5
sg39
I368705
sg40
g5
sg41
g5
sg42
I463261
sg43
g5
sg44
g45
sg46
I774401
sg47
g45
sg48
g45
sg49
g5
sg50
g45
ssS'KEAN STEVEN J'
p1250
(dp1251
g3
I12754
sg4
g5
sg6
g7
(g11
S'u\xb6\x9a\xfeI\x14\xd1\xbf'
p1252
tp1253
Rp1254
sg17
I00
sg18
g5
sg19
F0.05725699067909454
sg20
S'steven.kean@enron.com'
p1255
sg22
I300000
sg23
g5
sg24
g7
(g11
S'|T1\r*\xd1\x00@'
p1256
tp1257
Rp1258
sg28
g5
sg29
I6759
sg30
g7
(g11
S'E\xe0F\xe9^l\xd5\xbf'
p1259
tp1260
Rp1261
sg34
g5
sg35
g7
(g11
S'\xebD\x9c\x13\xaf\x06\xc2\xbf'
p1262
tp1263
Rp1264
sg39
I6153642
sg40
I140
sg41
I387
sg42
I4131594
sg43
I404338
sg44
g45
sg46
I1747522
sg47
g45
sg48
F0.010976948408342482
sg49
g7
(g11
S'#\xf3\xb8\t\xf1\xed\xc5\xbf'
p1265
tp1266
Rp1267
sg50
F0.23137791684453757
ssS'FOWLER PEGGY'
p1268
(dp1269
g3
I517
sg4
g5
sg6
g5
sg17
I00
sg18
g5
sg19
F0.0
sg20
S'kulvinder.fowler@enron.com'
p1270
sg22
g5
sg23
g5
sg24
g7
(g11
S'\xda|^r)\xdd\xef\xbf'
p1271
tp1272
Rp1273
sg28
g5
sg29
I36
sg30
g5
sg34
g5
sg35
g5
sg39
I1884748
sg40
I0
sg41
I0
sg42
I560170
sg43
g5
sg44
g45
sg46
g5
sg47
g45
sg48
F0.0
sg49
g7
(g11
S'K\x96\xac\xfc=\x1f\xd3\xbf'
p1274
tp1275
Rp1276
sg50
g45
ssS'WASAFF GEORGE'
p1277
(dp1278
g3
I400
sg4
I831299
sg6
g5
sg17
I00
sg18
I-583325
sg19
F0.23333333333333334
sg20
S'george.wasaff@enron.com'
p1279
sg22
I200000
sg23
g5
sg24
g7
(g11
S'\xaby\x8eOn\xee\xe6\xbf'
p1280
tp1281
Rp1282
sg28
g5
sg29
I30
sg30
g7
(g11
S')\xc5\x05b\x15j\xd5\xbf'
p1283
tp1284
Rp1285
sg34
g5
sg35
g7
(g11
S';Fgd\x18\x95\xe3\xbf'
p1286
tp1287
Rp1288
sg39
I2056427
sg40
I22
sg41
I7
sg42
I388167
sg43
I259996
sg44
g45
sg46
I1034395
sg47
g45
sg48
F0.055
sg49
g7
(g11
S'\xb0i\xfe\x8fx4\xce\xbf'
p1289
tp1290
Rp1291
sg50
F0.2513507895919837
ssS'WHITE JR THOMAS E'
p1292
(dp1293
g3
g5
sg4
g5
sg6
g7
(g11
S'w\xf3\xe8\x05\x86\xf3\xe2?'
p1294
tp1295
Rp1296
sg17
I00
sg18
g5
sg19
g45
sg20
S'thomas.white@enron.com'
p1297
sg22
g5
sg23
g5
sg24
g5
sg28
g5
sg29
g5
sg30
g7
(g11
S'\xa9\x98\xd0X\x80\x82\xdc?'
p1298
tp1299
Rp1300
sg34
g5
sg35
g7
(g11
S'Nuu\x17c\xca\xe0\xbf'
p1301
tp1302
Rp1303
sg39
I15144123
sg40
g5
sg41
g5
sg42
I13847074
sg43
I317543
sg44
g45
sg46
I1934359
sg47
g45
sg48
g45
sg49
g7
(g11
S'3:\xeap\xaaq\xd3\xbf'
p1304
tp1305
Rp1306
sg50
F0.1641592899766796
ssS'CHRISTODOULOU DIOMEDES'
p1307
(dp1308
g3
g5
sg4
g5
sg6
g5
sg17
I00
sg18
g5
sg19
g45
sg20
S'diomedes.christodoulou@enron.com'
p1309
sg22
g5
sg23
g5
sg24
g5
sg28
g5
sg29
g5
sg30
g5
sg34
g5
sg35
g5
sg39
I6077885
sg40
g5
sg41
g5
sg42
I950730
sg43
g5
sg44
g45
sg46
g5
sg47
g45
sg48
g45
sg49
g7
(g11
S'\xb0B\xeb\xd7\xecY\xd9?'
p1310
tp1311
Rp1312
sg50
g45
ssS'ALLEN PHILLIP K'
p1313
(dp1314
g3
I2902
sg4
I2869717
sg6
g7
(g11
S'\xb1p\x8d<\xb7"\xec\xbf'
p1315
tp1316
Rp1317
sg17
I00
sg18
I-3081055
sg19
F0.029612756264236904
sg20
S'phillip.allen@enron.com'
p1318
sg22
I304805
sg23
I-126027
sg24
g7
(g11
S'_\x16\xc5\x02\x940\xc9?'
p1319
tp1320
Rp1321
sg28
g5
sg29
I2195
sg30
g7
(g11
S'\x86\t\x0c\x89\x17y\xd5\xbf'
p1322
tp1323
Rp1324
sg34
g5
sg35
g7
(g11
S'\x93]_\xb7\xfa\x99\x00@'
p1325
tp1326
Rp1327
sg39
I1729541
sg40
I47
sg41
I65
sg42
I126027
sg43
I201955
sg44
g45
sg46
I4484442
sg47
g45
sg48
F0.016195727084769126
sg49
g7
(g11
S'k\xfa\xd2\x1f\x83\xc5\xcc\xbf'
p1328
tp1329
Rp1330
sg50
F0.04503458847276874
ssS'SHARP VICTORIA T'
p1331
(dp1332
g3
I3136
sg4
I187469
sg6
g7
(g11
S'>8sY3\xae\xf5?'
p1333
tp1334
Rp1335
sg17
I00
sg18
g5
sg19
F0.04411764705882353
sg20
S'vicki.sharp@enron.com'
p1336
sg22
I422158
sg23
g5
sg24
g7
(g11
S'm\x82x(\\\xc3\xf1?'
p1337
tp1338
Rp1339
sg28
g5
sg29
I136
sg30
g7
(g11
S'\x89\xb3\xd0\xa1\x93^\xd5\xbf'
p1340
tp1341
Rp1342
sg34
g5
sg35
g7
(g11
S'c(@vy\xe1\xda\xbf'
p1343
tp1344
Rp1345
sg39
I494136
sg40
I24
sg41
I6
sg42
I213063
sg43
I248146
sg44
g45
sg46
I1576511
sg47
g45
sg48
F0.007653061224489796
sg49
g7
(g11
S'2\xd8\xc2\xb0\x90S\xdf\xbf'
p1346
tp1347
Rp1348
sg50
F0.15740200988131386
ssS'JAEDICKE ROBERT'
p1349
(dp1350
g3
g5
sg4
g5
sg6
g5
sg17
I00
sg18
I-25000
sg19
g45
sg20
g5
sg22
g5
sg23
I-44093
sg24
g5
sg28
g5
sg29
g5
sg30
g5
sg34
I108750
sg35
g5
sg39
I431750
sg40
g5
sg41
g5
sg42
I44093
sg43
g5
sg44
g45
sg46
I83750
sg47
g45
sg48
g45
sg49
g7
(g11
S'\x1d\xcb\xf1\xa3m\x90\xdd\xbf'
p1351
tp1352
Rp1353
sg50
g45
ssS'WINOKUR JR. HERBERT S'
p1354
(dp1355
g3
g5
sg4
g5
sg6
g7
(g11
S'\x06\xb05c\xb8i\xf2\xbf'
p1356
tp1357
Rp1358
sg17
I00
sg18
I-25000
sg19
g45
sg20
g5
sg22
g5
sg23
g5
sg24
g5
sg28
g5
sg29
g5
sg30
g5
sg34
I108579
sg35
g5
sg39
g5
sg40
g5
sg41
g5
sg42
g5
sg43
g5
sg44
g45
sg46
I84992
sg47
g45
sg48
g45
sg49
g5
sg50
g45
ssS'BROWN MICHAEL'
p1359
(dp1360
g3
I1486
sg4
g5
sg6
g7
(g11
S'\xba\xf7\x82\xc7\xac_\xbb\xbf'
p1361
tp1362
Rp1363
sg17
I00
sg18
g5
sg19
F0.024390243902439025
sg20
S'michael.brown@enron.com'
p1364
sg22
g5
sg23
g5
sg24
g7
(g11
S'\xab\xab\xc3\xf5\xbe\xb2\xd6\xbf'
p1365
tp1366
Rp1367
sg28
g5
sg29
I41
sg30
g5
sg34
g5
sg35
g5
sg39
g5
sg40
I13
sg41
I1
sg42
g5
sg43
g5
sg44
g45
sg46
I49288
sg47
g45
sg48
F0.008748317631224764
sg49
g5
sg50
g45
ssS'BADUM JAMES P'
p1368
(dp1369
g3
g5
sg4
I178980
sg6
g7
(g11
S'\xd0N__\x94\xb0\xf1\xbf'
p1370
tp1371
Rp1372
sg17
I00
sg18
g5
sg19
g45
sg20
g5
sg22
g5
sg23
g5
sg24
g5
sg28
g5
sg29
g5
sg30
g5
sg34
g5
sg35
g5
sg39
I257817
sg40
g5
sg41
g5
sg42
g5
sg43
g5
sg44
g45
sg46
I182466
sg47
g45
sg48
g45
sg49
g7
(g11
S'"Q\xb0\xf81\x99\xdf\xbf'
p1373
tp1374
Rp1375
sg50
g45
ssS'HUGHES JAMES A'
p1376
(dp1377
g3
I719
sg4
g5
sg6
g5
sg17
I00
sg18
g5
sg19
F0.14705882352941177
sg20
S'james.hughes@enron.com'
p1378
sg22
g5
sg23
g5
sg24
g7
(g11
S'\r\x91\xf7\xf2-\x0c\xe0\xbf'
p1379
tp1380
Rp1381
sg28
g5
sg29
I34
sg30
g5
sg34
g5
sg35
g5
sg39
I1118394
sg40
I35
sg41
I5
sg42
I363428
sg43
g5
sg44
g45
sg46
g5
sg47
g45
sg48
F0.048678720445062586
sg49
g7
(g11
S'\x92`\xd7\xbb\xb2\xc8\xd9\xbf'
p1382
tp1383
Rp1384
sg50
g45
ssS'REYNOLDS LAWRENCE'
p1385
(dp1386
g3
g5
sg4
I51365
sg6
g7
(g11
S'\xe2\x93N\xd2\xce\xf1\xef\xbf'
p1387
tp1388
Rp1389
sg17
I00
sg18
I-200000
sg19
g45
sg20
g5
sg22
I156250
sg23
I-140264
sg24
g5
sg28
g5
sg29
g5
sg30
g7
(g11
S'\xccMq\twY\xc8\xbf'
p1390
tp1391
Rp1392
sg34
g5
sg35
g7
(g11
S'\xe6W\xe7\xee\x91\x9b\xe8\xbf'
p1393
tp1394
Rp1395
sg39
I4221891
sg40
g5
sg41
g5
sg42
I201483
sg43
I76399
sg44
g45
sg46
I394475
sg47
g45
sg48
g45
sg49
g7
(g11
S'\x81\xaeD\x12l\x18\xcc?'
p1396
tp1397
Rp1398
sg50
F0.1936726028265416
ssS'DIMICHELE RICHARD G'
p1399
(dp1400
g3
g5
sg4
g5
sg6
g7
(g11
S'\x9a\xbd\xf8\xc3\x1c\xa6\xd9\xbf'
p1401
tp1402
Rp1403
sg17
I00
sg18
g5
sg19
g45
sg20
S'richard.dimichele@enron.com'
p1404
sg22
I694862
sg23
g5
sg24
g5
sg28
g5
sg29
g5
sg30
g7
(g11
S'\x86\x8c\xda\xdd\x82\xe5\xb0\xbf'
p1405
tp1406
Rp1407
sg34
g5
sg35
g7
(g11
S'\xebD\x9c\x13\xaf\x06\xc2\xbf'
p1408
tp1409
Rp1410
sg39
I8317782
sg40
g5
sg41
g5
sg42
I126027
sg43
I262788
sg44
g45
sg46
I2368151
sg47
g45
sg48
g45
sg49
g7
(g11
S'\xfe\xd4V.\xc5\x98\xee?'
p1411
tp1412
Rp1413
sg50
F0.11096758610409556
ssS'BHATNAGAR SANJAY'
p1414
(dp1415
g3
I523
sg4
g5
sg6
g5
sg17
I00
sg18
g5
sg19
F0.034482758620689655
sg20
S'sanjay.bhatnagar@enron.com'
p1416
sg22
g5
sg23
I15456290
sg24
g7
(g11
S'\\\x05C!N}\xe3\xbf'
p1417
tp1418
Rp1419
sg28
g5
sg29
I29
sg30
g7
(g11
S'\x80f\xb1\xd9\xfdB\xce\xbf'
p1420
tp1421
Rp1422
sg34
I137864
sg35
g5
sS'total_stock_value'
p1423
S'NaN'
p1424
sg40
I0
sg41
I1
sg42
I-2604490
sg43
g5
sg44
g45
sg46
I15456290
sg47
g45
sg48
F0.0
sg49
g7
(g11
S'\x8f\x85`Ig\x9c\xb0\xbf'
p1425
tp1426
Rp1427
sg50
g45
ssS'CARTER REBECCA C'
p1428
(dp1429
g3
I312
sg4
g5
sg6
g5
sg17
I00
sg18
I-159792
sg19
F0.4666666666666667
sg20
S'rebecca.carter@enron.com'
p1430
sg22
I75000
sg23
I-307301
sg24
g7
(g11
S'~&\xb2\xd8s\xc8\xea\xbf'
p1431
tp1432
Rp1433
sg28
g5
sg29
I15
sg30
g7
(g11
S'N\xd3\x89z\x84t\xd5\xbf'
p1434
tp1435
Rp1436
sg34
g5
sg35
g7
(g11
S'k\xd6\xcas\t$\xe4\xbf'
p1437
tp1438
Rp1439
sg39
g5
sg40
I29
sg41
I7
sg42
I307301
sg43
I261809
sg44
g45
sg46
I477557
sg47
g45
sg48
F0.09294871794871795
sg49
g5
sg50
F0.5482256568325875
ssS'BUCHANAN HAROLD G'
p1440
(dp1441
g3
I1088
sg4
g5
sg6
g7
(g11
S'S\xb3\xadgT\xb2\xf2\xbf'
p1442
tp1443
Rp1444
sg17
I00
sg18
g5
sg19
F0.0
sg20
S'john.buchanan@enron.com'
p1445
sg22
I304805
sg23
g5
sg24
g7
(g11
S'\x13\x7f\t\x8a@\x82\xef\xbf'
p1446
tp1447
Rp1448
sg28
g5
sg29
I125
sg30
g7
(g11
S'\xce\xa5\xc53\x8fl\xd5\xbf'
p1449
tp1450
Rp1451
sg34
g5
sg35
g7
(g11
S'\xdf\xa9\\\xf1\x01Y\xdf\xbf'
p1452
tp1453
Rp1454
sg39
I1014505
sg40
I0
sg41
I0
sg42
I189041
sg43
I248017
sg44
g45
sg46
I1054637
sg47
g45
sg48
F0.0
sg49
g7
(g11
S'\x84:\x19\\\x9f\xf5\xd8\xbf'
p1455
tp1456
Rp1457
sg50
F0.23516811945721608
ssS'YEAP SOON'
p1458
(dp1459
g3
g5
sg4
g5
sg6
g7
(g11
S'\xf5\x9a\xc2\xc7\xcd4\x94?'
p1460
tp1461
Rp1462
sg17
I00
sg18
g5
sg19
g45
sg20
g5
sg22
g5
sg23
g5
sg24
g5
sg28
g5
sg29
g5
sg30
g5
sg34
g5
sg35
g5
sg39
I192758
sg40
g5
sg41
g5
sg42
g5
sg43
g5
sg44
g45
sg46
I55097
sg47
g45
sg48
g45
sg49
g7
(g11
S'\x8fuO:\xfe-\xe0\xbf'
p1463
tp1464
Rp1465
sg50
g45
ssS'MURRAY JULIA H'
p1466
(dp1467
g3
I2192
sg4
g5
sg6
g7
(g11
S'\xdfU\x15.T\xe9\xb2?'
p1468
tp1469
Rp1470
sg17
I00
sg18
g5
sg19
F0.044444444444444446
sg20
S'julia.murray@enron.com'
p1471
sg22
I125000
sg23
g5
sg24
g7
(g11
S'Z\xd2\xb0V\xd5X\xe5\xbf'
p1472
tp1473
Rp1474
sg28
g5
sg29
I45
sg30
g7
(g11
S'\xf3\xb3IL\xfev\xd5\xbf'
p1475
tp1476
Rp1477
sg34
g5
sg35
g7
(g11
S'\xad\x95<6E\xe8\xe1\xbf'
p1478
tp1479
Rp1480
sg39
I597461
sg40
I11
sg41
I2
sg42
I196983
sg43
I229284
sg44
g45
sg46
I812194
sg47
g45
sg48
F0.005018248175182482
sg49
g7
(g11
S'}\xf9\\\x08\x0f\xee\xdd\xbf'
p1481
tp1482
Rp1483
sg50
F0.2823020115883644
ssS'GARLAND C KEVIN'
p1484
(dp1485
g3
I209
sg4
g5
sg6
g7
(g11
S'\x90\xa3r\x15\xba&\xc0\xbf'
p1486
tp1487
Rp1488
sg17
I00
sg18
g5
sg19
F0.6136363636363636
sg20
S'kevin.garland@enron.com'
p1489
sg22
I375304
sg23
g5
sg24
g7
(g11
S'\x1b7O\xdfSF\xeb\xbf'
p1490
tp1491
Rp1492
sg28
g5
sg29
I44
sg30
g7
(g11
S'\xe9H\xcdA\xe6\xad\xd2\xbf'
p1493
tp1494
Rp1495
sg34
g5
sg35
g7
(g11
S']\xc9\xf1\x84Hm\xcf\xbf'
p1496
tp1497
Rp1498
sg39
I896153
sg40
I10
sg41
I27
sg42
I259907
sg43
I231946
sg44
g45
sg46
I1566469
sg47
g45
sg48
F0.04784688995215311
sg49
g7
(g11
S"r\xd0#Z',\xdb\xbf"
p1499
tp1500
Rp1501
sg50
F0.14806932023551056
ssS'DODSON KEITH'
p1502
(dp1503
g3
I176
sg4
g5
sg6
g7
(g11
S'\xec\xc9\xd1S&)\xe2\xbf'
p1504
tp1505
Rp1506
sg17
I00
sg18
g5
sg19
F0.21428571428571427
sg20
S'keith.dodson@enron.com'
p1507
sg22
g5
sg23
g5
sg24
g7
(g11
S'\xa1\x8e\xb6/\xe2\x05\xed\xbf'
p1508
tp1509
Rp1510
sg28
g5
sg29
I14
sg30
g7
(g11
S'[\xca\x0b9\xc2q\xd5\xbf'
p1511
tp1512
Rp1513
sg34
g5
sg35
g7
(g11
S'Rk\xf8\x9a\x19G\xe9\xbf'
p1514
tp1515
Rp1516
sg39
g5
sg40
I10
sg41
I3
sg42
g5
sg43
I221003
sg44
g45
sg46
I319941
sg47
g45
sg48
F0.056818181818181816
sg49
g5
sg50
F0.6907617341947422
ssS'YEAGER F SCOTT'
p1517
(dp1518
g3
g5
sg4
g5
sg6
g7
(g11
S'&\xe1\xb0]\xcc\xe1u\xbf'
p1519
tp1520
Rp1521
sg17
I01
sg18
g5
sg19
g45
sg20
S'scott.yeager@enron.com'
p1522
sg22
g5
sg23
g5
sg24
g5
sg28
g5
sg29
g5
sg30
g7
(g11
S'v\x14\xde\xf9*U\xcd\xbf'
p1523
tp1524
Rp1525
sg34
g5
sg35
g5
sg39
I11884758
sg40
g5
sg41
g5
sg42
I3576206
sg43
I158403
sg44
g45
sg46
I360300
sg47
g45
sg48
g45
sg49
g7
(g11
S'\xa14\xcd\x84\x9eG\xef?'
p1526
tp1527
Rp1528
sg50
F0.4396419650291424
ssS'HIRKO JOSEPH'
p1529
(dp1530
g3
g5
sg4
I10259
sg6
g7
(g11
S'9\xb3\x01w\xad\x98\xe0?'
p1531
tp1532
Rp1533
sg17
I01
sg18
g5
sg19
g45
sg20
S'joe.hirko@enron.com'
p1534
sg22
g5
sg23
g5
sg24
g5
sg28
g5
sg29
g5
sg30
g7
(g11
S'#\xa2[[6Y\xd5\xbf'
p1535
tp1536
Rp1537
sg34
g5
sg35
g5
sg39
I30766064
sg40
g5
sg41
g5
sg42
g5
sg43
g5
sg44
g45
sg46
I91093
sg47
g45
sg48
g45
sg49
g7
(g11
S'4\x93\xa0BhS\x14@'
p1538
tp1539
Rp1540
sg50
g45
ssS'DIETRICH JANET R'
p1541
(dp1542
g3
I2572
sg4
g5
sg6
g7
(g11
S'\x13\xdf\xf5\xde\x8f\xb1\xf1\xbf'
p1543
tp1544
Rp1545
sg17
I00
sg18
g5
sg19
F0.2222222222222222
sg20
S'janet.dietrich@enron.com'
p1546
sg22
I556416
sg23
g5
sg24
g7
(g11
S'\x86\x8e\x90\xb6\xb5\xd1\xe3?'
p1547
tp1548
Rp1549
sg28
g5
sg29
I63
sg30
g7
(g11
S'{\xae|\xb2Nu\xd5\xbf'
p1550
tp1551
Rp1552
sg34
g5
sg35
g7
(g11
S'c(@vy\xe1\xda\xbf'
p1553
tp1554
Rp1555
sg39
I1865087
sg40
I305
sg41
I14
sg42
I315068
sg43
I250100
sg44
g45
sg46
I1410464
sg47
g45
sg48
F0.11858475894245724
sg49
g7
(g11
S']\xe3U\xc1A|\xd0\xbf'
p1556
tp1557
Rp1558
sg50
F0.1773175352224516
ssS'DERRICK JR. JAMES V'
p1559
(dp1560
g3
I2181
sg4
g5
sg6
g7
(g11
S'Y>\xdc\xe4\x16 \xb1\xbf'
p1561
tp1562
Rp1563
sg17
I00
sg18
I-1284000
sg19
F0.022002200220022004
sg20
S'james.derrick@enron.com'
p1564
sg22
I484000
sg23
I-1787380
sg24
g7
(g11
S'\x8dU\x9e\xa4\xbe\x88\xc8?'
p1565
tp1566
Rp1567
sg28
g5
sg29
I909
sg30
g7
(g11
S'\xe1\xc9\xee8\xac"\xd5\xbf'
p1568
tp1569
Rp1570
sg34
g5
sg35
g7
(g11
S'l%\x07\x80h\xf2\xd1\xbf'
p1571
tp1572
Rp1573
sg39
I8831913
sg40
I64
sg41
I20
sg42
I1787380
sg43
I492375
sg44
g45
sg46
I550981
sg47
g45
sg48
F0.029344337459880788
sg49
g7
(g11
S'\x06\xcc\x86\xd1\x8d+\xf1?'
p1574
tp1575
Rp1576
sg50
F0.8936333557781484
ssS'FREVERT MARK A'
p1577
(dp1578
g3
I3275
sg4
I6426990
sg6
g7
(g11
S'\xf7\xbe`\xd4\xdf\xe1\xe6?'
p1579
tp1580
Rp1581
sg17
I00
sg18
I-3367011
sg19
F0.2857142857142857
sg20
S'mark.frevert@enron.com'
p1582
sg22
I1617011
sg23
g5
sg24
g7
(g11
S'\xae\xcd\xcdK\x9e\x9e\xf8?'
p1583
tp1584
Rp1585
sg28
I2000000
sg29
I21
sg30
g7
(g11
S'3\x18\xc0\xd1s\t\x14@'
p1586
tp1587
Rp1588
sg34
g5
sg35
g7
(g11
S'/v\xa7\xa2\xfe\xd3\xe1?'
p1589
tp1590
Rp1591
sg39
I14622185
sg40
I242
sg41
I6
sg42
I4188667
sg43
I1060932
sg44
g45
sg46
I17252530
sg47
g45
sg48
F0.07389312977099237
sg49
g7
(g11
S'\x1d%\xb4\xbfa\xda\xf5?'
p1592
tp1593
Rp1594
sg50
F0.06149428518599881
ssS'PAI LOU L'
p1595
(dp1596
g3
g5
sg4
g5
sg6
g7
(g11
S'\x1f\xe3/\xed \xe7\xde\xbf'
p1597
tp1598
Rp1599
sg17
I00
sg18
g5
sg19
g45
sg20
S'lou.pai@enron.com'
p1600
sg22
g5
sg23
g5
sg24
g5
sg28
g5
sg29
g5
sg30
g7
(g11
S'\x12\xb4\xe0\xcb\x04c\xef?'
p1601
tp1602
Rp1603
sg34
g5
sg35
g7
(g11
S'\xebD\x9c\x13\xaf\x06\xc2\xbf'
p1604
tp1605
Rp1606
sg39
I23817930
sg40
g5
sg41
g5
sg42
I8453763
sg43
I261879
sg44
g45
sg46
I3123383
sg47
g45
sg48
g45
sg49
g7
(g11
S'\xb1\x97\xc2\xf0\x86"\x02@'
p1607
tp1608
Rp1609
sg50
F0.08384466458324195
ssS'BAY FRANKLIN R'
p1610
(dp1611
g3
g5
sg4
I260455
sg6
g7
(g11
S';\xd8\x18W\xd2%\xfa?'
p1612
tp1613
Rp1614
sg17
I00
sg18
I-201641
sg19
g45
sg20
S'frank.bay@enron.com'
p1615
sg22
g5
sg23
I-82782
sg24
g5
sg28
g5
sg29
g5
sg30
g7
(g11
S'<\xaa}\x0b\x12z\xd5\xbf'
p1616
tp1617
Rp1618
sg34
g5
sg35
g7
(g11
S'\xad\x95<6E\xe8\xe1\xbf'
p1619
tp1620
Rp1621
sg39
I63014
sg40
g5
sg41
g5
sg42
I145796
sg43
I239671
sg44
g45
sg46
I827696
sg47
g45
sg48
g45
sg49
g5
sg50
F0.2895640428369836
ssS'HAYSLETT RODERICK J'
p1622
(dp1623
g3
I2649
sg4
g5
sg6
g5
sg17
I00
sg18
g5
sg19
F0.03581526861451461
sg20
S'rod.hayslett@enron.com'
p1624
sg22
g5
sg23
g5
sg24
g7
(g11
S'\xaa\xa1\x94\xf9\r\x8a\xe0\xbf'
p1625
tp1626
Rp1627
sg28
g5
sg29
I1061
sg30
g5
sg34
g5
sg35
g5
sg39
I346663
sg40
I35
sg41
I38
sg42
I346663
sg43
g5
sg44
g45
sg46
g5
sg47
g45
sg48
F0.01321253303133258
sg49
g5
sg50
g45
ssS'FUGH JOHN L'
p1628
(dp1629
g3
g5
sg4
I50591
sg6
g5
sg17
I00
sg18
g5
sg19
g45
sg20
g5
sg22
g5
sg23
g5
sg24
g5
sg28
g5
sg29
g5
sg30
g5
sg34
g5
sg35
g5
sg39
I176378
sg40
g5
sg41
g5
sg42
g5
sg43
g5
sg44
g45
sg46
I50591
sg47
g45
sg48
g45
sg49
g7
(g11
S'\xf5\xc9\xed\xb4\x83F\xe0\xbf'
p1630
tp1631
Rp1632
sg50
g45
ssS'FALLON JAMES B'
p1633
(dp1634
g3
I1755
sg4
g5
sg6
g7
(g11
S'J\xc7\x0c\xda5\x1e\xed?'
p1635
tp1636
Rp1637
sg17
I00
sg18
g5
sg19
F0.49333333333333335
sg20
S'jim.fallon@enron.com'
p1638
sg22
I374347
sg23
g5
sg24
g7
(g11
S'\xff\xbd^ \x8e[\xd7?'
p1639
tp1640
Rp1641
sg28
g5
sg29
I75
sg30
g7
(g11
S'yx\xfc\x89\x0b\xec\xa7\xbf'
p1642
tp1643
Rp1644
sg34
g5
sg35
g7
(g11
S'\xe4\xb9n\xd6\xd3\xfe\xec?'
p1645
tp1646
Rp1647
sg39
I2332399
sg40
I42
sg41
I37
sg42
I1392142
sg43
I304588
sg44
g45
sg46
I3676340
sg47
g45
sg48
F0.023931623931623933
sg49
g7
(g11
S'\x9b\xe8K\xb6\xec\x9d\xd7\xbf'
p1648
tp1649
Rp1650
sg50
F0.08285087886321722
ssS'KOENIG MARK E'
p1651
(dp1652
g3
I2374
sg4
g5
sg6
g7
(g11
S'\xc9\xb5zl\th\xf9?'
p1653
tp1654
Rp1655
sg17
I01
sg18
g5
sg19
F0.2459016393442623
sg20
S'mark.koenig@enron.com'
p1656
sg22
I300000
sg23
g5
sg24
g7
(g11
S'%c$>&\xe6\xed?'
p1657
tp1658
Rp1659
sg28
g5
sg29
I61
sg30
g7
(g11
S'K-\x9f\xbf\x07\x1a\xcd\xbf'
p1660
tp1661
Rp1662
sg34
g5
sg35
g7
(g11
S'\xe8\xa6#\xfb\xf0i\xd6\xbf'
p1663
tp1664
Rp1665
sg39
I1920055
sg40
I53
sg41
I15
sg42
I1248318
sg43
I309946
sg44
g45
sg46
I1587421
sg47
g45
sg48
F0.02232518955349621
sg49
g7
(g11
S'\x9b\x9f=-\xe4\xc1\xda\xbf'
p1666
tp1667
Rp1668
sg50
F0.19525129124535962
ssS'SAVAGE FRANK'
p1669
(dp1670
g3
g5
sg4
g5
sg6
g5
sg17
I00
sg18
I-121284
sg19
g45
sg20
g5
sg22
g5
sg23
g5
sg24
g5
sg28
g5
sg29
g5
sg30
g5
sg34
I125034
sg35
g5
sg39
g5
sg40
g5
sg41
g5
sg42
g5
sg43
g5
sg44
g45
sg46
I3750
sg47
g45
sg48
g45
sg49
g5
sg50
g45
ssS'IZZO LAWRENCE L'
p1671
(dp1672
g3
I496
sg4
g5
sg6
g7
(g11
S'Kmi\xf1\xd45\xe2\xbf'
p1673
tp1674
Rp1675
sg17
I00
sg18
g5
sg19
F0.2631578947368421
sg20
S'larry.izzo@enron.com'
p1676
sg22
I312500
sg23
g5
sg24
g7
(g11
S'\xea\x00\xed\xf1\x1f3\xe4\xbf'
p1677
tp1678
Rp1679
sg28
g5
sg29
I19
sg30
g7
(g11
S'7\t\xf9k\xa1\t\xe9?'
p1680
tp1681
Rp1682
sg34
g5
sg35
g5
sg39
I5819980
sg40
I28
sg41
I5
sg42
I3654808
sg43
I85274
sg44
g45
sg46
I1979596
sg47
g45
sg48
F0.056451612903225805
sg49
g7
(g11
S'\xa9\xcf)f\xe5\x94\xc2\xbf'
p1683
tp1684
Rp1685
sg50
F0.043076466107225916
ssS'TILNEY ELIZABETH A'
p1686
(dp1687
g3
I460
sg4
g5
sg6
g5
sg17
I00
sg18
I-575000
sg19
F0.5789473684210527
sg20
S'elizabeth.tilney@enron.com'
p1688
sg22
I275000
sg23
g5
sg24
g7
(g11
S';\xa8\xca\xea\xb8\xc8\xe5\xbf'
p1689
tp1690
Rp1691
sg28
g5
sg29
I19
sg30
g7
(g11
S'gd\x84\xa8_\xf4\xcc\xbf'
p1692
tp1693
Rp1694
sg34
g5
sg35
g7
(g11
S'k\xd6\xcas\t$\xe4\xbf'
p1695
tp1696
Rp1697
sg39
I1168042
sg40
I10
sg41
I11
sg42
I576792
sg43
I247338
sg44
g45
sg46
I399393
sg47
g45
sg48
F0.021739130434782608
sg49
g7
(g11
S'e\xf2\xcd\xed\xdf\xb2\xdb\xbf'
p1698
tp1699
Rp1700
sg50
F0.6192847646303266
ssS'MARTIN AMANDA K'
p1701
(dp1702
g3
I1522
sg4
I85430
sg6
g7
(g11
S'\xa4n\xbda\x96\n\xf0\xbf'
p1703
tp1704
Rp1705
sg17
I00
sg18
g5
sg19
F0.0
sg20
S'a..martin@enron.com'
p1706
sg22
I5145434
sg23
g5
sg24
g7
(g11
S'7j\xac\xfff\x1b\xe3\xbf'
p1707
tp1708
Rp1709
sg28
g5
sg29
I230
sg30
g7
(g11
S'.\x1b\x1c\xf2\x86\x14\xfb?'
p1710
tp1711
Rp1712
sg34
g5
sg35
g5
sg39
I2070306
sg40
I8
sg41
I0
sg42
g5
sg43
I349487
sg44
g45
sg46
I8407016
sg47
g45
sg48
F0.005256241787122208
sg49
g7
(g11
S'\xd4~\xd5\\\xf7\xcc\xc4\xbf'
p1713
tp1714
Rp1715
sg50
F0.04157087366076144
ssS'BUY RICHARD B'
p1716
(dp1717
g3
I3523
sg4
I649584
sg6
g5
sg17
I00
sg18
I-694862
sg19
F0.06742640075973409
sg20
S'rick.buy@enron.com'
p1718
sg22
I769862
sg23
g5
sg24
g7
(g11
S'\xee\x7f\x08\x1c\xb8\x97\xef?'
p1719
tp1720
Rp1721
sg28
g5
sg29
I1053
sg30
g7
(g11
S'\x0e,\x0e\xcc\xc7A\xa8\xbf'
p1722
tp1723
Rp1724
sg34
g5
sg35
g7
(g11
S'\xe2G\xd5\t\xc0\xf5\xca\xbf'
p1725
tp1726
Rp1727
sg39
I3444470
sg40
I156
sg41
I71
sg42
I901657
sg43
I330546
sg44
g45
sg46
I2355702
sg47
g45
sg48
F0.04428044280442804
sg49
g7
(g11
S'\xdf\xb2\xceD\x10\x7f\xb3\xbf'
p1728
tp1729
Rp1730
sg50
F0.14031740856865596
ssS'GRAMM WENDY L'
p1731
(dp1732
g3
g5
sg4
g5
sg6
g5
sg17
I00
sg18
g5
sg19
g45
sg20
g5
sg22
g5
sg23
g5
sg24
g5
sg28
g5
sg29
g5
sg30
g5
sg34
I119292
sg35
g5
sg39
g5
sg40
g5
sg41
g5
sg42
g5
sg43
g5
sg44
g45
sg46
I119292
sg47
g45
sg48
g45
sg49
g5
sg50
g45
ssS'CAUSEY RICHARD A'
p1733
(dp1734
g3
I1892
sg4
g5
sg6
g7
(g11
S'\xc0\x12j\x9b\xcfh\xe0\xbf'
p1735
tp1736
Rp1737
sg17
I01
sg18
I-235000
sg19
F0.24489795918367346
sg20
S'richard.causey@enron.com'
p1738
sg22
I350000
sg23
g5
sg24
g7
(g11
S'\x07b\xa1\xa0\xd1Q\xd6?'
p1739
tp1740
Rp1741
sg28
g5
sg29
I49
sg30
g7
(g11
S'\xdes\xfa\x13v3\xbd\xbf'
p1742
tp1743
Rp1744
sg34
g5
sg35
g7
(g11
S'\xebD\x9c\x13\xaf\x06\xc2\xbf'
p1745
tp1746
Rp1747
sg39
I2502063
sg40
I58
sg41
I12
sg42
I2502063
sg43
I415189
sg44
g45
sg46
I1868758
sg47
g45
sg48
F0.0306553911205074
sg49
g5
sg50
F0.22217376460729532
ssS'TAYLOR MITCHELL S'
p1748
(dp1749
g3
I533
sg4
I227449
sg6
g5
sg17
I00
sg18
g5
sg19
F0.0
sg20
S'mitchell.taylor@enron.com'
p1750
sg22
g5
sg23
g5
sg24
g7
(g11
S'D8\n\x96,\xf1\xe7\xbf'
p1751
tp1752
Rp1753
sg28
g5
sg29
I29
sg30
g5
sg34
g5
sg35
g7
(g11
S'c(@vy\xe1\xda\xbf'
p1754
tp1755
Rp1756
sg39
I3745048
sg40
I0
sg41
I0
sg42
I563798
sg43
I265214
sg44
g45
sg46
I1092663
sg47
g45
sg48
F0.0
sg49
g7
(g11
S'\xa3\xa3\xeb\xd8\r\xbe\xa4?'
p1757
tp1758
Rp1759
sg50
F0.24272259607948654
ssS'DONAHUE JR JEFFREY M'
p1760
(dp1761
g3
I865
sg4
g5
sg6
g7
(g11
S'\x9f\xd7\xd5\xee\xa7[\xed?'
p1762
tp1763
Rp1764
sg17
I00
sg18
I-300000
sg19
F0.5
sg20
S'jeff.donahue@enron.com'
p1765
sg22
g5
sg23
g5
sg24
g7
(g11
S'\x95% \n\xe6\x18\xd6\xbf'
p1766
tp1767
Rp1768
sg28
g5
sg29
I22
sg30
g7
(g11
S'\xe2\xc5L\x18ap\xd5\xbf'
p1769
tp1770
Rp1771
sg34
g5
sg35
g7
(g11
S'l%\x07\x80h\xf2\xd1\xbf'
p1772
tp1773
Rp1774
sg39
I1080988
sg40
I188
sg41
I11
sg42
I315068
sg43
I278601
sg44
g45
sg46
I875760
sg47
g45
sg48
F0.21734104046242775
sg49
g7
(g11
S'\xf3\x05\x91\xb3\xe6\xa7\xd9\xbf'
p1775
tp1776
Rp1777
sg50
F0.3181248287201973
ssS'GLISAN JR BEN F'
p1778
(dp1779
g3
I873
sg4
g5
sg6
g7
(g11
S'\x1eM\xedA>\x0b\xf9?'
p1780
tp1781
Rp1782
sg17
I01
sg18
g5
sg19
F0.375
sg20
S'ben.glisan@enron.com'
p1783
sg22
I71023
sg23
g5
sg24
g7
(g11
S'\x9b\xbe\xd6iP\x86\xd0\xbf'
p1784
tp1785
Rp1786
sg28
g5
sg29
I16
sg30
g7
(g11
S'd\x84ey\x96\x82\xc8\xbf'
p1787
tp1788
Rp1789
sg34
g5
sg35
g7
(g11
S'c(@vy\xe1\xda\xbf'
p1790
tp1791
Rp1792
sg39
I778546
sg40
I52
sg41
I6
sg42
I393818
sg43
I274975
sg44
g45
sg46
I1272284
sg47
g45
sg48
F0.05956471935853379
sg49
g7
(g11
S'ht\x8d\x1b7\x1d\xde\xbf'
p1793
tp1794
Rp1795
sg50
F0.21612705968164342
ss.